
GraficTFT_Test.elf:     file format elf32-avr

Sections:
Idx Name          Size      VMA       LMA       File off  Algn
  0 .data         00001388  00800200  0000106e  00001102  2**0
                  CONTENTS, ALLOC, LOAD, DATA
  1 .text         0000106e  00000000  00000000  00000094  2**1
                  CONTENTS, ALLOC, LOAD, READONLY, CODE
  2 .bss          00000004  00801588  00801588  0000248a  2**0
                  ALLOC
  3 .comment      00000030  00000000  00000000  0000248a  2**0
                  CONTENTS, READONLY
  4 .note.gnu.avr.deviceinfo 00000040  00000000  00000000  000024bc  2**2
                  CONTENTS, READONLY
  5 .debug_aranges 00000140  00000000  00000000  000024fc  2**0
                  CONTENTS, READONLY, DEBUGGING
  6 .debug_info   000020ae  00000000  00000000  0000263c  2**0
                  CONTENTS, READONLY, DEBUGGING
  7 .debug_abbrev 00000fe3  00000000  00000000  000046ea  2**0
                  CONTENTS, READONLY, DEBUGGING
  8 .debug_line   00000b85  00000000  00000000  000056cd  2**0
                  CONTENTS, READONLY, DEBUGGING
  9 .debug_frame  00000504  00000000  00000000  00006254  2**2
                  CONTENTS, READONLY, DEBUGGING
 10 .debug_str    0000091c  00000000  00000000  00006758  2**0
                  CONTENTS, READONLY, DEBUGGING
 11 .debug_loc    000018f3  00000000  00000000  00007074  2**0
                  CONTENTS, READONLY, DEBUGGING
 12 .debug_ranges 00000188  00000000  00000000  00008967  2**0
                  CONTENTS, READONLY, DEBUGGING

Disassembly of section .text:

00000000 <__vectors>:
       0:	71 c0       	rjmp	.+226    	; 0xe4 <__ctors_end>
       2:	00 00       	nop
       4:	8e c0       	rjmp	.+284    	; 0x122 <__bad_interrupt>
       6:	00 00       	nop
       8:	8c c0       	rjmp	.+280    	; 0x122 <__bad_interrupt>
       a:	00 00       	nop
       c:	8a c0       	rjmp	.+276    	; 0x122 <__bad_interrupt>
       e:	00 00       	nop
      10:	88 c0       	rjmp	.+272    	; 0x122 <__bad_interrupt>
      12:	00 00       	nop
      14:	86 c0       	rjmp	.+268    	; 0x122 <__bad_interrupt>
      16:	00 00       	nop
      18:	84 c0       	rjmp	.+264    	; 0x122 <__bad_interrupt>
      1a:	00 00       	nop
      1c:	82 c0       	rjmp	.+260    	; 0x122 <__bad_interrupt>
      1e:	00 00       	nop
      20:	80 c0       	rjmp	.+256    	; 0x122 <__bad_interrupt>
      22:	00 00       	nop
      24:	7e c0       	rjmp	.+252    	; 0x122 <__bad_interrupt>
      26:	00 00       	nop
      28:	7c c0       	rjmp	.+248    	; 0x122 <__bad_interrupt>
      2a:	00 00       	nop
      2c:	7a c0       	rjmp	.+244    	; 0x122 <__bad_interrupt>
      2e:	00 00       	nop
      30:	78 c0       	rjmp	.+240    	; 0x122 <__bad_interrupt>
      32:	00 00       	nop
      34:	76 c0       	rjmp	.+236    	; 0x122 <__bad_interrupt>
      36:	00 00       	nop
      38:	74 c0       	rjmp	.+232    	; 0x122 <__bad_interrupt>
      3a:	00 00       	nop
      3c:	72 c0       	rjmp	.+228    	; 0x122 <__bad_interrupt>
      3e:	00 00       	nop
      40:	70 c0       	rjmp	.+224    	; 0x122 <__bad_interrupt>
      42:	00 00       	nop
      44:	6e c0       	rjmp	.+220    	; 0x122 <__bad_interrupt>
      46:	00 00       	nop
      48:	6c c0       	rjmp	.+216    	; 0x122 <__bad_interrupt>
      4a:	00 00       	nop
      4c:	6a c0       	rjmp	.+212    	; 0x122 <__bad_interrupt>
      4e:	00 00       	nop
      50:	68 c0       	rjmp	.+208    	; 0x122 <__bad_interrupt>
      52:	00 00       	nop
      54:	66 c0       	rjmp	.+204    	; 0x122 <__bad_interrupt>
      56:	00 00       	nop
      58:	64 c0       	rjmp	.+200    	; 0x122 <__bad_interrupt>
      5a:	00 00       	nop
      5c:	62 c0       	rjmp	.+196    	; 0x122 <__bad_interrupt>
      5e:	00 00       	nop
      60:	60 c0       	rjmp	.+192    	; 0x122 <__bad_interrupt>
      62:	00 00       	nop
      64:	5e c0       	rjmp	.+188    	; 0x122 <__bad_interrupt>
      66:	00 00       	nop
      68:	5c c0       	rjmp	.+184    	; 0x122 <__bad_interrupt>
      6a:	00 00       	nop
      6c:	5a c0       	rjmp	.+180    	; 0x122 <__bad_interrupt>
      6e:	00 00       	nop
      70:	58 c0       	rjmp	.+176    	; 0x122 <__bad_interrupt>
      72:	00 00       	nop
      74:	56 c0       	rjmp	.+172    	; 0x122 <__bad_interrupt>
      76:	00 00       	nop
      78:	54 c0       	rjmp	.+168    	; 0x122 <__bad_interrupt>
      7a:	00 00       	nop
      7c:	52 c0       	rjmp	.+164    	; 0x122 <__bad_interrupt>
      7e:	00 00       	nop
      80:	50 c0       	rjmp	.+160    	; 0x122 <__bad_interrupt>
      82:	00 00       	nop
      84:	4e c0       	rjmp	.+156    	; 0x122 <__bad_interrupt>
      86:	00 00       	nop
      88:	4c c0       	rjmp	.+152    	; 0x122 <__bad_interrupt>
      8a:	00 00       	nop
      8c:	4a c0       	rjmp	.+148    	; 0x122 <__bad_interrupt>
      8e:	00 00       	nop
      90:	48 c0       	rjmp	.+144    	; 0x122 <__bad_interrupt>
      92:	00 00       	nop
      94:	46 c0       	rjmp	.+140    	; 0x122 <__bad_interrupt>
      96:	00 00       	nop
      98:	44 c0       	rjmp	.+136    	; 0x122 <__bad_interrupt>
      9a:	00 00       	nop
      9c:	42 c0       	rjmp	.+132    	; 0x122 <__bad_interrupt>
      9e:	00 00       	nop
      a0:	40 c0       	rjmp	.+128    	; 0x122 <__bad_interrupt>
      a2:	00 00       	nop
      a4:	3e c0       	rjmp	.+124    	; 0x122 <__bad_interrupt>
      a6:	00 00       	nop
      a8:	3c c0       	rjmp	.+120    	; 0x122 <__bad_interrupt>
      aa:	00 00       	nop
      ac:	3a c0       	rjmp	.+116    	; 0x122 <__bad_interrupt>
      ae:	00 00       	nop
      b0:	38 c0       	rjmp	.+112    	; 0x122 <__bad_interrupt>
      b2:	00 00       	nop
      b4:	36 c0       	rjmp	.+108    	; 0x122 <__bad_interrupt>
      b6:	00 00       	nop
      b8:	34 c0       	rjmp	.+104    	; 0x122 <__bad_interrupt>
      ba:	00 00       	nop
      bc:	32 c0       	rjmp	.+100    	; 0x122 <__bad_interrupt>
      be:	00 00       	nop
      c0:	30 c0       	rjmp	.+96     	; 0x122 <__bad_interrupt>
      c2:	00 00       	nop
      c4:	2e c0       	rjmp	.+92     	; 0x122 <__bad_interrupt>
      c6:	00 00       	nop
      c8:	2c c0       	rjmp	.+88     	; 0x122 <__bad_interrupt>
      ca:	00 00       	nop
      cc:	2a c0       	rjmp	.+84     	; 0x122 <__bad_interrupt>
      ce:	00 00       	nop
      d0:	28 c0       	rjmp	.+80     	; 0x122 <__bad_interrupt>
      d2:	00 00       	nop
      d4:	26 c0       	rjmp	.+76     	; 0x122 <__bad_interrupt>
      d6:	00 00       	nop
      d8:	24 c0       	rjmp	.+72     	; 0x122 <__bad_interrupt>
      da:	00 00       	nop
      dc:	22 c0       	rjmp	.+68     	; 0x122 <__bad_interrupt>
      de:	00 00       	nop
      e0:	20 c0       	rjmp	.+64     	; 0x122 <__bad_interrupt>
	...

000000e4 <__ctors_end>:
      e4:	11 24       	eor	r1, r1
      e6:	1f be       	out	0x3f, r1	; 63
      e8:	cf ef       	ldi	r28, 0xFF	; 255
      ea:	d1 e2       	ldi	r29, 0x21	; 33
      ec:	de bf       	out	0x3e, r29	; 62
      ee:	cd bf       	out	0x3d, r28	; 61
      f0:	00 e0       	ldi	r16, 0x00	; 0
      f2:	0c bf       	out	0x3c, r16	; 60

000000f4 <__do_copy_data>:
      f4:	15 e1       	ldi	r17, 0x15	; 21
      f6:	a0 e0       	ldi	r26, 0x00	; 0
      f8:	b2 e0       	ldi	r27, 0x02	; 2
      fa:	ee e6       	ldi	r30, 0x6E	; 110
      fc:	f0 e1       	ldi	r31, 0x10	; 16
      fe:	00 e0       	ldi	r16, 0x00	; 0
     100:	0b bf       	out	0x3b, r16	; 59
     102:	02 c0       	rjmp	.+4      	; 0x108 <__do_copy_data+0x14>
     104:	07 90       	elpm	r0, Z+
     106:	0d 92       	st	X+, r0
     108:	a8 38       	cpi	r26, 0x88	; 136
     10a:	b1 07       	cpc	r27, r17
     10c:	d9 f7       	brne	.-10     	; 0x104 <__do_copy_data+0x10>

0000010e <__do_clear_bss>:
     10e:	25 e1       	ldi	r18, 0x15	; 21
     110:	a8 e8       	ldi	r26, 0x88	; 136
     112:	b5 e1       	ldi	r27, 0x15	; 21
     114:	01 c0       	rjmp	.+2      	; 0x118 <.do_clear_bss_start>

00000116 <.do_clear_bss_loop>:
     116:	1d 92       	st	X+, r1

00000118 <.do_clear_bss_start>:
     118:	ac 38       	cpi	r26, 0x8C	; 140
     11a:	b2 07       	cpc	r27, r18
     11c:	e1 f7       	brne	.-8      	; 0x116 <.do_clear_bss_loop>
     11e:	79 d0       	rcall	.+242    	; 0x212 <main>
     120:	a4 c7       	rjmp	.+3912   	; 0x106a <_exit>

00000122 <__bad_interrupt>:
     122:	6e cf       	rjmp	.-292    	; 0x0 <__vectors>

00000124 <i2c_master_init>:
     124:	e9 eb       	ldi	r30, 0xB9	; 185
     126:	f0 e0       	ldi	r31, 0x00	; 0
     128:	80 81       	ld	r24, Z
     12a:	8c 7f       	andi	r24, 0xFC	; 252
     12c:	80 83       	st	Z, r24
     12e:	82 e0       	ldi	r24, 0x02	; 2
     130:	80 93 b8 00 	sts	0x00B8, r24	; 0x8000b8 <__TEXT_REGION_LENGTH__+0x7000b8>
     134:	08 95       	ret

00000136 <i2c_master_wait>:
     136:	80 91 bc 00 	lds	r24, 0x00BC	; 0x8000bc <__TEXT_REGION_LENGTH__+0x7000bc>
     13a:	88 23       	and	r24, r24
     13c:	44 f0       	brlt	.+16     	; 0x14e <i2c_master_wait+0x18>
     13e:	84 e6       	ldi	r24, 0x64	; 100
     140:	ec eb       	ldi	r30, 0xBC	; 188
     142:	f0 e0       	ldi	r31, 0x00	; 0
     144:	90 81       	ld	r25, Z
     146:	99 23       	and	r25, r25
     148:	14 f0       	brlt	.+4      	; 0x14e <i2c_master_wait+0x18>
     14a:	81 50       	subi	r24, 0x01	; 1
     14c:	d9 f7       	brne	.-10     	; 0x144 <i2c_master_wait+0xe>
     14e:	08 95       	ret

00000150 <i2c_master_start>:
     150:	84 ea       	ldi	r24, 0xA4	; 164
     152:	80 93 bc 00 	sts	0x00BC, r24	; 0x8000bc <__TEXT_REGION_LENGTH__+0x7000bc>
     156:	ef cf       	rjmp	.-34     	; 0x136 <i2c_master_wait>
     158:	08 95       	ret

0000015a <i2c_master_receive>:
     15a:	af 92       	push	r10
     15c:	bf 92       	push	r11
     15e:	cf 92       	push	r12
     160:	df 92       	push	r13
     162:	ef 92       	push	r14
     164:	ff 92       	push	r15
     166:	0f 93       	push	r16
     168:	1f 93       	push	r17
     16a:	cf 93       	push	r28
     16c:	df 93       	push	r29
     16e:	88 0f       	add	r24, r24
     170:	d8 2f       	mov	r29, r24
     172:	d1 60       	ori	r29, 0x01	; 1
     174:	ed df       	rcall	.-38     	; 0x150 <i2c_master_start>
     176:	c0 e0       	ldi	r28, 0x00	; 0
     178:	09 eb       	ldi	r16, 0xB9	; 185
     17a:	10 e0       	ldi	r17, 0x00	; 0
     17c:	0f 2e       	mov	r0, r31
     17e:	fc eb       	ldi	r31, 0xBC	; 188
     180:	ef 2e       	mov	r14, r31
     182:	f1 2c       	mov	r15, r1
     184:	f0 2d       	mov	r31, r0
     186:	0f 2e       	mov	r0, r31
     188:	f4 e8       	ldi	r31, 0x84	; 132
     18a:	af 2e       	mov	r10, r31
     18c:	f0 2d       	mov	r31, r0
     18e:	0f 2e       	mov	r0, r31
     190:	fb eb       	ldi	r31, 0xBB	; 187
     192:	cf 2e       	mov	r12, r31
     194:	d1 2c       	mov	r13, r1
     196:	f0 2d       	mov	r31, r0
     198:	0f 2e       	mov	r0, r31
     19a:	f4 ec       	ldi	r31, 0xC4	; 196
     19c:	bf 2e       	mov	r11, r31
     19e:	f0 2d       	mov	r31, r0
     1a0:	f8 01       	movw	r30, r16
     1a2:	90 81       	ld	r25, Z
     1a4:	98 7f       	andi	r25, 0xF8	; 248
     1a6:	90 34       	cpi	r25, 0x40	; 64
     1a8:	79 f0       	breq	.+30     	; 0x1c8 <i2c_master_receive+0x6e>
     1aa:	18 f4       	brcc	.+6      	; 0x1b2 <i2c_master_receive+0x58>
     1ac:	98 30       	cpi	r25, 0x08	; 8
     1ae:	31 f0       	breq	.+12     	; 0x1bc <i2c_master_receive+0x62>
     1b0:	15 c0       	rjmp	.+42     	; 0x1dc <i2c_master_receive+0x82>
     1b2:	90 35       	cpi	r25, 0x50	; 80
     1b4:	69 f0       	breq	.+26     	; 0x1d0 <i2c_master_receive+0x76>
     1b6:	98 35       	cpi	r25, 0x58	; 88
     1b8:	71 f0       	breq	.+28     	; 0x1d6 <i2c_master_receive+0x7c>
     1ba:	10 c0       	rjmp	.+32     	; 0x1dc <i2c_master_receive+0x82>
     1bc:	f6 01       	movw	r30, r12
     1be:	d0 83       	st	Z, r29
     1c0:	f7 01       	movw	r30, r14
     1c2:	b0 82       	st	Z, r11
     1c4:	b8 df       	rcall	.-144    	; 0x136 <i2c_master_wait>
     1c6:	0a c0       	rjmp	.+20     	; 0x1dc <i2c_master_receive+0x82>
     1c8:	f7 01       	movw	r30, r14
     1ca:	a0 82       	st	Z, r10
     1cc:	b4 df       	rcall	.-152    	; 0x136 <i2c_master_wait>
     1ce:	06 c0       	rjmp	.+12     	; 0x1dc <i2c_master_receive+0x82>
     1d0:	80 91 bb 00 	lds	r24, 0x00BB	; 0x8000bb <__TEXT_REGION_LENGTH__+0x7000bb>
     1d4:	07 c0       	rjmp	.+14     	; 0x1e4 <i2c_master_receive+0x8a>
     1d6:	80 91 bb 00 	lds	r24, 0x00BB	; 0x8000bb <__TEXT_REGION_LENGTH__+0x7000bb>
     1da:	04 c0       	rjmp	.+8      	; 0x1e4 <i2c_master_receive+0x8a>
     1dc:	cf 5f       	subi	r28, 0xFF	; 255
     1de:	ca 3f       	cpi	r28, 0xFA	; 250
     1e0:	f9 f6       	brne	.-66     	; 0x1a0 <i2c_master_receive+0x46>
     1e2:	08 c0       	rjmp	.+16     	; 0x1f4 <i2c_master_receive+0x9a>
     1e4:	94 e9       	ldi	r25, 0x94	; 148
     1e6:	90 93 bc 00 	sts	0x00BC, r25	; 0x8000bc <__TEXT_REGION_LENGTH__+0x7000bc>
     1ea:	cf 5f       	subi	r28, 0xFF	; 255
     1ec:	ca 3f       	cpi	r28, 0xFA	; 250
     1ee:	30 f0       	brcs	.+12     	; 0x1fc <i2c_master_receive+0xa2>
     1f0:	8e ee       	ldi	r24, 0xEE	; 238
     1f2:	04 c0       	rjmp	.+8      	; 0x1fc <i2c_master_receive+0xa2>
     1f4:	84 e9       	ldi	r24, 0x94	; 148
     1f6:	80 93 bc 00 	sts	0x00BC, r24	; 0x8000bc <__TEXT_REGION_LENGTH__+0x7000bc>
     1fa:	8e ee       	ldi	r24, 0xEE	; 238
     1fc:	df 91       	pop	r29
     1fe:	cf 91       	pop	r28
     200:	1f 91       	pop	r17
     202:	0f 91       	pop	r16
     204:	ff 90       	pop	r15
     206:	ef 90       	pop	r14
     208:	df 90       	pop	r13
     20a:	cf 90       	pop	r12
     20c:	bf 90       	pop	r11
     20e:	af 90       	pop	r10
     210:	08 95       	ret

00000212 <main>:
#include "i2c.h"
#define ADDRESS 40


int main(void)
{
     212:	cf 93       	push	r28
     214:	df 93       	push	r29
     216:	00 d0       	rcall	.+0      	; 0x218 <main+0x6>
     218:	00 d0       	rcall	.+0      	; 0x21a <main+0x8>
     21a:	cd b7       	in	r28, 0x3d	; 61
     21c:	de b7       	in	r29, 0x3e	; 62
    /* Replace with your application code */
	
	DisplayInit();
     21e:	d1 d0       	rcall	.+418    	; 0x3c2 <DisplayInit>
	i2c_master_init();
     220:	81 df       	rcall	.-254    	; 0x124 <i2c_master_init>
     222:	0f 2e       	mov	r0, r31
	int i = 0;
	//long int i=0;
	//int count = 0;
	FillRectangle(0,0,320,240,31,63,31);
     224:	ff e1       	ldi	r31, 0x1F	; 31
     226:	cf 2e       	mov	r12, r31
     228:	f0 2d       	mov	r31, r0
     22a:	0f 2e       	mov	r0, r31
     22c:	ff e3       	ldi	r31, 0x3F	; 63
     22e:	ef 2e       	mov	r14, r31
     230:	f0 2d       	mov	r31, r0
     232:	0f e1       	ldi	r16, 0x1F	; 31
     234:	20 ef       	ldi	r18, 0xF0	; 240
     236:	30 e0       	ldi	r19, 0x00	; 0
     238:	40 e4       	ldi	r20, 0x40	; 64
     23a:	51 e0       	ldi	r21, 0x01	; 1
     23c:	60 e0       	ldi	r22, 0x00	; 0
     23e:	70 e0       	ldi	r23, 0x00	; 0
     240:	80 e0       	ldi	r24, 0x00	; 0
     242:	90 e0       	ldi	r25, 0x00	; 0
     244:	20 d1       	rcall	.+576    	; 0x486 <FillRectangle>
     246:	4a e0       	ldi	r20, 0x0A	; 10
	//int size = sizeof(array)/sizeof(array[0]);
	float countRed=0;
	float countGreen=0;
	float countBlue=0;
	char color = 0;
	writeString("Sort M&M's",10,10);
     248:	50 e0       	ldi	r21, 0x00	; 0
     24a:	6a e0       	ldi	r22, 0x0A	; 10
     24c:	70 e0       	ldi	r23, 0x00	; 0
     24e:	80 e0       	ldi	r24, 0x00	; 0
     250:	92 e0       	ldi	r25, 0x02	; 2
     252:	47 d2       	rcall	.+1166   	; 0x6e2 <writeString>
     254:	4a e0       	ldi	r20, 0x0A	; 10
	writeString("Total:",190,10);
     256:	50 e0       	ldi	r21, 0x00	; 0
     258:	6e eb       	ldi	r22, 0xBE	; 190
     25a:	70 e0       	ldi	r23, 0x00	; 0
     25c:	8b e0       	ldi	r24, 0x0B	; 11
     25e:	92 e0       	ldi	r25, 0x02	; 2
     260:	40 d2       	rcall	.+1152   	; 0x6e2 <writeString>
     262:	2f ef       	ldi	r18, 0xFF	; 255
	#else
		//round up by default
		__ticks_dc = (uint32_t)(ceil(fabs(__tmp)));
	#endif

	__builtin_avr_delay_cycles(__ticks_dc);
     264:	83 ed       	ldi	r24, 0xD3	; 211
     266:	90 e3       	ldi	r25, 0x30	; 48
     268:	21 50       	subi	r18, 0x01	; 1
     26a:	80 40       	sbci	r24, 0x00	; 0
     26c:	90 40       	sbci	r25, 0x00	; 0
     26e:	e1 f7       	brne	.-8      	; 0x268 <main+0x56>
     270:	00 c0       	rjmp	.+0      	; 0x272 <main+0x60>
     272:	00 00       	nop
     274:	81 2c       	mov	r8, r1
	//int count = 0;
	FillRectangle(0,0,320,240,31,63,31);
	//int size = sizeof(array)/sizeof(array[0]);
	float countRed=0;
	float countGreen=0;
	float countBlue=0;
     276:	91 2c       	mov	r9, r1
     278:	54 01       	movw	r10, r8
     27a:	89 82       	std	Y+1, r8	; 0x01
	//long int i=0;
	//int count = 0;
	FillRectangle(0,0,320,240,31,63,31);
	//int size = sizeof(array)/sizeof(array[0]);
	float countRed=0;
	float countGreen=0;
     27c:	9a 82       	std	Y+2, r9	; 0x02
     27e:	ab 82       	std	Y+3, r10	; 0x03
     280:	bc 82       	std	Y+4, r11	; 0x04
     282:	24 01       	movw	r4, r8
	int i = 0;
	//long int i=0;
	//int count = 0;
	FillRectangle(0,0,320,240,31,63,31);
	//int size = sizeof(array)/sizeof(array[0]);
	float countRed=0;
     284:	35 01       	movw	r6, r10
     286:	1e 82       	std	Y+6, r1	; 0x06
{
    /* Replace with your application code */
	
	DisplayInit();
	i2c_master_init();
	int i = 0;
     288:	1d 82       	std	Y+5, r1	; 0x05
     28a:	0f 2e       	mov	r0, r31
	writeString("Total:",190,10);

	_delay_ms(1000);
    while (1) 
    {
		FillRectangle(0,0,320,240,31,63,31);
     28c:	ff e1       	ldi	r31, 0x1F	; 31
     28e:	cf 2e       	mov	r12, r31
     290:	f0 2d       	mov	r31, r0
     292:	0f 2e       	mov	r0, r31
     294:	ff e3       	ldi	r31, 0x3F	; 63
     296:	ef 2e       	mov	r14, r31
     298:	f0 2d       	mov	r31, r0
     29a:	0f e1       	ldi	r16, 0x1F	; 31
     29c:	20 ef       	ldi	r18, 0xF0	; 240
     29e:	30 e0       	ldi	r19, 0x00	; 0
     2a0:	40 e4       	ldi	r20, 0x40	; 64
     2a2:	51 e0       	ldi	r21, 0x01	; 1
     2a4:	60 e0       	ldi	r22, 0x00	; 0
     2a6:	70 e0       	ldi	r23, 0x00	; 0
     2a8:	80 e0       	ldi	r24, 0x00	; 0
     2aa:	90 e0       	ldi	r25, 0x00	; 0
     2ac:	ec d0       	rcall	.+472    	; 0x486 <FillRectangle>
     2ae:	4a e0       	ldi	r20, 0x0A	; 10
		writeString("Sort M&M's",10,10);
     2b0:	50 e0       	ldi	r21, 0x00	; 0
     2b2:	6a e0       	ldi	r22, 0x0A	; 10
     2b4:	70 e0       	ldi	r23, 0x00	; 0
     2b6:	80 e0       	ldi	r24, 0x00	; 0
     2b8:	92 e0       	ldi	r25, 0x02	; 2
     2ba:	13 d2       	rcall	.+1062   	; 0x6e2 <writeString>
     2bc:	4a e0       	ldi	r20, 0x0A	; 10
		writeString("Total:",190,10);
     2be:	50 e0       	ldi	r21, 0x00	; 0
     2c0:	6e eb       	ldi	r22, 0xBE	; 190
     2c2:	70 e0       	ldi	r23, 0x00	; 0
     2c4:	8b e0       	ldi	r24, 0x0B	; 11
     2c6:	92 e0       	ldi	r25, 0x02	; 2
     2c8:	0c d2       	rcall	.+1048   	; 0x6e2 <writeString>
     2ca:	88 e2       	ldi	r24, 0x28	; 40
		color = i2c_master_receive(ADDRESS);
     2cc:	46 df       	rcall	.-372    	; 0x15a <i2c_master_receive>
     2ce:	82 35       	cpi	r24, 0x52	; 82
		if (color == 'R')
     2d0:	51 f4       	brne	.+20     	; 0x2e6 <main+0xd4>
     2d2:	20 e0       	ldi	r18, 0x00	; 0
		{
			countRed++;
     2d4:	30 e0       	ldi	r19, 0x00	; 0
     2d6:	40 e8       	ldi	r20, 0x80	; 128
     2d8:	5f e3       	ldi	r21, 0x3F	; 63
     2da:	c3 01       	movw	r24, r6
     2dc:	b2 01       	movw	r22, r4
     2de:	8a d4       	rcall	.+2324   	; 0xbf4 <__addsf3>
     2e0:	2b 01       	movw	r4, r22
     2e2:	3c 01       	movw	r6, r24
     2e4:	1b c0       	rjmp	.+54     	; 0x31c <main+0x10a>
     2e6:	87 34       	cpi	r24, 0x47	; 71
     2e8:	71 f4       	brne	.+28     	; 0x306 <main+0xf4>
		}
		else if (color == 'G')
     2ea:	20 e0       	ldi	r18, 0x00	; 0
		{
			countGreen++;
     2ec:	30 e0       	ldi	r19, 0x00	; 0
     2ee:	40 e8       	ldi	r20, 0x80	; 128
     2f0:	5f e3       	ldi	r21, 0x3F	; 63
     2f2:	69 81       	ldd	r22, Y+1	; 0x01
     2f4:	7a 81       	ldd	r23, Y+2	; 0x02
     2f6:	8b 81       	ldd	r24, Y+3	; 0x03
     2f8:	9c 81       	ldd	r25, Y+4	; 0x04
     2fa:	7c d4       	rcall	.+2296   	; 0xbf4 <__addsf3>
     2fc:	69 83       	std	Y+1, r22	; 0x01
     2fe:	7a 83       	std	Y+2, r23	; 0x02
     300:	8b 83       	std	Y+3, r24	; 0x03
     302:	9c 83       	std	Y+4, r25	; 0x04
     304:	0b c0       	rjmp	.+22     	; 0x31c <main+0x10a>
     306:	82 34       	cpi	r24, 0x42	; 66
		}
		else if (color == 'B')
     308:	49 f4       	brne	.+18     	; 0x31c <main+0x10a>
     30a:	20 e0       	ldi	r18, 0x00	; 0
		{
			countBlue++;
     30c:	30 e0       	ldi	r19, 0x00	; 0
     30e:	40 e8       	ldi	r20, 0x80	; 128
     310:	5f e3       	ldi	r21, 0x3F	; 63
     312:	c5 01       	movw	r24, r10
     314:	b4 01       	movw	r22, r8
     316:	6e d4       	rcall	.+2268   	; 0xbf4 <__addsf3>
     318:	4b 01       	movw	r8, r22
     31a:	5c 01       	movw	r10, r24
     31c:	85 01       	movw	r16, r10
		}
		
		drawTotal(countRed, countGreen, countBlue);
     31e:	74 01       	movw	r14, r8
     320:	29 81       	ldd	r18, Y+1	; 0x01
     322:	3a 81       	ldd	r19, Y+2	; 0x02
     324:	4b 81       	ldd	r20, Y+3	; 0x03
     326:	5c 81       	ldd	r21, Y+4	; 0x04
     328:	c3 01       	movw	r24, r6
     32a:	b2 01       	movw	r22, r4
     32c:	c7 d3       	rcall	.+1934   	; 0xabc <drawTotal>
     32e:	8d 81       	ldd	r24, Y+5	; 0x05
		//countBlue(count);
		//countRed(count);

		//writeString("12",50,100);
		
		if (i==2)
     330:	9e 81       	ldd	r25, Y+6	; 0x06
     332:	02 97       	sbiw	r24, 0x02	; 2
     334:	49 f4       	brne	.+18     	; 0x348 <main+0x136>
     336:	20 e0       	ldi	r18, 0x00	; 0
		{
			countBlue++;
     338:	30 e0       	ldi	r19, 0x00	; 0
     33a:	40 e8       	ldi	r20, 0x80	; 128
     33c:	5f e3       	ldi	r21, 0x3F	; 63
     33e:	c5 01       	movw	r24, r10
     340:	b4 01       	movw	r22, r8
     342:	58 d4       	rcall	.+2224   	; 0xbf4 <__addsf3>
     344:	4b 01       	movw	r8, r22
     346:	5c 01       	movw	r10, r24
     348:	8d 81       	ldd	r24, Y+5	; 0x05
     34a:	9e 81       	ldd	r25, Y+6	; 0x06
		}
		i++;
     34c:	01 96       	adiw	r24, 0x01	; 1
     34e:	9e 83       	std	Y+6, r25	; 0x06
     350:	8d 83       	std	Y+5, r24	; 0x05
     352:	9f ef       	ldi	r25, 0xFF	; 255
     354:	23 ed       	ldi	r18, 0xD3	; 211
     356:	80 e3       	ldi	r24, 0x30	; 48
     358:	91 50       	subi	r25, 0x01	; 1
     35a:	20 40       	sbci	r18, 0x00	; 0
     35c:	80 40       	sbci	r24, 0x00	; 0
     35e:	e1 f7       	brne	.-8      	; 0x358 <main+0x146>
     360:	00 c0       	rjmp	.+0      	; 0x362 <main+0x150>
     362:	00 00       	nop
     364:	12 d0       	rcall	.+36     	; 0x38a <DisplayOn>
		_delay_ms(1000);
		DisplayOn();
     366:	91 cf       	rjmp	.-222    	; 0x28a <main+0x78>

00000368 <WriteCommand>:
     368:	88 b9       	out	0x08, r24	; 8


		
    }
     36a:	5f 98       	cbi	0x0b, 7	; 11
     36c:	a1 98       	cbi	0x14, 1	; 20
     36e:	a2 98       	cbi	0x14, 2	; 20
     370:	00 00       	nop
     372:	a2 9a       	sbi	0x14, 2	; 20
     374:	00 00       	nop
     376:	08 95       	ret

00000378 <WriteData>:
     378:	92 b9       	out	0x02, r25	; 2
     37a:	88 b9       	out	0x08, r24	; 8
     37c:	5f 9a       	sbi	0x0b, 7	; 11
     37e:	a1 98       	cbi	0x14, 1	; 20
     380:	a2 98       	cbi	0x14, 2	; 20
     382:	00 00       	nop
     384:	a2 9a       	sbi	0x14, 2	; 20
     386:	00 00       	nop
     388:	08 95       	ret

0000038a <DisplayOn>:
     38a:	89 e2       	ldi	r24, 0x29	; 41
     38c:	90 e0       	ldi	r25, 0x00	; 0
     38e:	ec cf       	rjmp	.-40     	; 0x368 <WriteCommand>
     390:	08 95       	ret

00000392 <SleepOut>:
     392:	81 e1       	ldi	r24, 0x11	; 17
     394:	90 e0       	ldi	r25, 0x00	; 0
     396:	e8 cf       	rjmp	.-48     	; 0x368 <WriteCommand>
     398:	08 95       	ret

0000039a <MemoryAccessControl>:
     39a:	cf 93       	push	r28
     39c:	c8 2f       	mov	r28, r24
     39e:	86 e3       	ldi	r24, 0x36	; 54
     3a0:	90 e0       	ldi	r25, 0x00	; 0
     3a2:	e2 df       	rcall	.-60     	; 0x368 <WriteCommand>
     3a4:	8c 2f       	mov	r24, r28
     3a6:	90 e0       	ldi	r25, 0x00	; 0
     3a8:	e7 df       	rcall	.-50     	; 0x378 <WriteData>
     3aa:	cf 91       	pop	r28
     3ac:	08 95       	ret

000003ae <InterfacePixelFormat>:
     3ae:	cf 93       	push	r28
     3b0:	c8 2f       	mov	r28, r24
     3b2:	8a e3       	ldi	r24, 0x3A	; 58
     3b4:	90 e0       	ldi	r25, 0x00	; 0
     3b6:	d8 df       	rcall	.-80     	; 0x368 <WriteCommand>
     3b8:	8c 2f       	mov	r24, r28
     3ba:	90 e0       	ldi	r25, 0x00	; 0
     3bc:	dd df       	rcall	.-70     	; 0x378 <WriteData>
     3be:	cf 91       	pop	r28
     3c0:	08 95       	ret

000003c2 <DisplayInit>:
     3c2:	83 b3       	in	r24, 0x13	; 19
     3c4:	87 60       	ori	r24, 0x07	; 7
     3c6:	83 bb       	out	0x13, r24	; 19
     3c8:	57 9a       	sbi	0x0a, 7	; 10
     3ca:	8f ef       	ldi	r24, 0xFF	; 255
     3cc:	81 b9       	out	0x01, r24	; 1
     3ce:	87 b9       	out	0x07, r24	; 7
     3d0:	84 b3       	in	r24, 0x14	; 20
     3d2:	87 60       	ori	r24, 0x07	; 7
     3d4:	84 bb       	out	0x14, r24	; 20
     3d6:	5f 9a       	sbi	0x0b, 7	; 11
     3d8:	a1 98       	cbi	0x14, 1	; 20
     3da:	2f ef       	ldi	r18, 0xFF	; 255
     3dc:	85 ea       	ldi	r24, 0xA5	; 165
     3de:	9e e0       	ldi	r25, 0x0E	; 14
     3e0:	21 50       	subi	r18, 0x01	; 1
     3e2:	80 40       	sbci	r24, 0x00	; 0
     3e4:	90 40       	sbci	r25, 0x00	; 0
     3e6:	e1 f7       	brne	.-8      	; 0x3e0 <DisplayInit+0x1e>
     3e8:	00 c0       	rjmp	.+0      	; 0x3ea <DisplayInit+0x28>
     3ea:	00 00       	nop
     3ec:	a1 9a       	sbi	0x14, 1	; 20
     3ee:	2f ef       	ldi	r18, 0xFF	; 255
     3f0:	88 e5       	ldi	r24, 0x58	; 88
     3f2:	96 e0       	ldi	r25, 0x06	; 6
     3f4:	21 50       	subi	r18, 0x01	; 1
     3f6:	80 40       	sbci	r24, 0x00	; 0
     3f8:	90 40       	sbci	r25, 0x00	; 0
     3fa:	e1 f7       	brne	.-8      	; 0x3f4 <DisplayInit+0x32>
     3fc:	00 c0       	rjmp	.+0      	; 0x3fe <DisplayInit+0x3c>
     3fe:	00 00       	nop
     400:	c8 df       	rcall	.-112    	; 0x392 <SleepOut>
     402:	c3 df       	rcall	.-122    	; 0x38a <DisplayOn>
     404:	88 e0       	ldi	r24, 0x08	; 8
     406:	c9 df       	rcall	.-110    	; 0x39a <MemoryAccessControl>
     408:	85 e0       	ldi	r24, 0x05	; 5
     40a:	d1 cf       	rjmp	.-94     	; 0x3ae <InterfacePixelFormat>
     40c:	08 95       	ret

0000040e <MemoryWrite>:
     40e:	8c e2       	ldi	r24, 0x2C	; 44
     410:	90 e0       	ldi	r25, 0x00	; 0
     412:	aa cf       	rjmp	.-172    	; 0x368 <WriteCommand>
     414:	08 95       	ret

00000416 <SetColomnAddress>:
     416:	0f 93       	push	r16
     418:	1f 93       	push	r17
     41a:	cf 93       	push	r28
     41c:	df 93       	push	r29
     41e:	08 2f       	mov	r16, r24
     420:	d9 2f       	mov	r29, r25
     422:	16 2f       	mov	r17, r22
     424:	c7 2f       	mov	r28, r23
     426:	8a e2       	ldi	r24, 0x2A	; 42
     428:	90 e0       	ldi	r25, 0x00	; 0
     42a:	9e df       	rcall	.-196    	; 0x368 <WriteCommand>
     42c:	8d 2f       	mov	r24, r29
     42e:	90 e0       	ldi	r25, 0x00	; 0
     430:	a3 df       	rcall	.-186    	; 0x378 <WriteData>
     432:	80 2f       	mov	r24, r16
     434:	9d 2f       	mov	r25, r29
     436:	a0 df       	rcall	.-192    	; 0x378 <WriteData>
     438:	8c 2f       	mov	r24, r28
     43a:	90 e0       	ldi	r25, 0x00	; 0
     43c:	9d df       	rcall	.-198    	; 0x378 <WriteData>
     43e:	81 2f       	mov	r24, r17
     440:	9c 2f       	mov	r25, r28
     442:	9a df       	rcall	.-204    	; 0x378 <WriteData>
     444:	df 91       	pop	r29
     446:	cf 91       	pop	r28
     448:	1f 91       	pop	r17
     44a:	0f 91       	pop	r16
     44c:	08 95       	ret

0000044e <SetPageAddress>:
     44e:	0f 93       	push	r16
     450:	1f 93       	push	r17
     452:	cf 93       	push	r28
     454:	df 93       	push	r29
     456:	08 2f       	mov	r16, r24
     458:	d9 2f       	mov	r29, r25
     45a:	16 2f       	mov	r17, r22
     45c:	c7 2f       	mov	r28, r23
     45e:	8b e2       	ldi	r24, 0x2B	; 43
     460:	90 e0       	ldi	r25, 0x00	; 0
     462:	82 df       	rcall	.-252    	; 0x368 <WriteCommand>
     464:	8d 2f       	mov	r24, r29
     466:	90 e0       	ldi	r25, 0x00	; 0
     468:	87 df       	rcall	.-242    	; 0x378 <WriteData>
     46a:	80 2f       	mov	r24, r16
     46c:	9d 2f       	mov	r25, r29
     46e:	84 df       	rcall	.-248    	; 0x378 <WriteData>
     470:	8c 2f       	mov	r24, r28
     472:	90 e0       	ldi	r25, 0x00	; 0
     474:	81 df       	rcall	.-254    	; 0x378 <WriteData>
     476:	81 2f       	mov	r24, r17
     478:	9c 2f       	mov	r25, r28
     47a:	7e df       	rcall	.-260    	; 0x378 <WriteData>
     47c:	df 91       	pop	r29
     47e:	cf 91       	pop	r28
     480:	1f 91       	pop	r17
     482:	0f 91       	pop	r16
     484:	08 95       	ret

00000486 <FillRectangle>:
     486:	8f 92       	push	r8
     488:	9f 92       	push	r9
     48a:	af 92       	push	r10
     48c:	bf 92       	push	r11
     48e:	cf 92       	push	r12
     490:	df 92       	push	r13
     492:	ef 92       	push	r14
     494:	ff 92       	push	r15
     496:	0f 93       	push	r16
     498:	1f 93       	push	r17
     49a:	cf 93       	push	r28
     49c:	df 93       	push	r29
     49e:	eb 01       	movw	r28, r22
     4a0:	4a 01       	movw	r8, r20
     4a2:	59 01       	movw	r10, r18
     4a4:	bc 01       	movw	r22, r24
     4a6:	64 0f       	add	r22, r20
     4a8:	75 1f       	adc	r23, r21
     4aa:	d1 df       	rcall	.-94     	; 0x44e <SetPageAddress>
     4ac:	be 01       	movw	r22, r28
     4ae:	6a 0d       	add	r22, r10
     4b0:	7b 1d       	adc	r23, r11
     4b2:	ce 01       	movw	r24, r28
     4b4:	b0 df       	rcall	.-160    	; 0x416 <SetColomnAddress>
     4b6:	ab df       	rcall	.-170    	; 0x40e <MemoryWrite>
     4b8:	94 01       	movw	r18, r8
     4ba:	d5 01       	movw	r26, r10
     4bc:	c7 d5       	rcall	.+2958   	; 0x104c <__umulhisi3>
     4be:	4b 01       	movw	r8, r22
     4c0:	5c 01       	movw	r10, r24
     4c2:	67 2b       	or	r22, r23
     4c4:	68 2b       	or	r22, r24
     4c6:	69 2b       	or	r22, r25
     4c8:	e1 f0       	breq	.+56     	; 0x502 <FillRectangle+0x7c>
     4ca:	80 e2       	ldi	r24, 0x20	; 32
     4cc:	e8 9e       	mul	r14, r24
     4ce:	70 01       	movw	r14, r0
     4d0:	11 24       	eor	r1, r1
     4d2:	ec 28       	or	r14, r12
     4d4:	10 e0       	ldi	r17, 0x00	; 0
     4d6:	10 2f       	mov	r17, r16
     4d8:	00 27       	eor	r16, r16
     4da:	11 0f       	add	r17, r17
     4dc:	11 0f       	add	r17, r17
     4de:	11 0f       	add	r17, r17
     4e0:	0e 29       	or	r16, r14
     4e2:	1f 29       	or	r17, r15
     4e4:	c1 2c       	mov	r12, r1
     4e6:	d1 2c       	mov	r13, r1
     4e8:	76 01       	movw	r14, r12
     4ea:	c8 01       	movw	r24, r16
     4ec:	45 df       	rcall	.-374    	; 0x378 <WriteData>
     4ee:	8f ef       	ldi	r24, 0xFF	; 255
     4f0:	c8 1a       	sub	r12, r24
     4f2:	d8 0a       	sbc	r13, r24
     4f4:	e8 0a       	sbc	r14, r24
     4f6:	f8 0a       	sbc	r15, r24
     4f8:	c8 14       	cp	r12, r8
     4fa:	d9 04       	cpc	r13, r9
     4fc:	ea 04       	cpc	r14, r10
     4fe:	fb 04       	cpc	r15, r11
     500:	a1 f7       	brne	.-24     	; 0x4ea <FillRectangle+0x64>
     502:	df 91       	pop	r29
     504:	cf 91       	pop	r28
     506:	1f 91       	pop	r17
     508:	0f 91       	pop	r16
     50a:	ff 90       	pop	r15
     50c:	ef 90       	pop	r14
     50e:	df 90       	pop	r13
     510:	cf 90       	pop	r12
     512:	bf 90       	pop	r11
     514:	af 90       	pop	r10
     516:	9f 90       	pop	r9
     518:	8f 90       	pop	r8
     51a:	08 95       	ret

0000051c <lengthOfFixedLetter>:
     51c:	88 0f       	add	r24, r24
     51e:	99 1f       	adc	r25, r25
     520:	fc 01       	movw	r30, r24
     522:	e4 5f       	subi	r30, 0xF4	; 244
     524:	fb 4e       	sbci	r31, 0xEB	; 235
     526:	20 81       	ld	r18, Z
     528:	31 81       	ldd	r19, Z+1	; 0x01
     52a:	c9 01       	movw	r24, r18
     52c:	96 95       	lsr	r25
     52e:	87 95       	ror	r24
     530:	96 95       	lsr	r25
     532:	87 95       	ror	r24
     534:	96 95       	lsr	r25
     536:	87 95       	ror	r24
     538:	27 70       	andi	r18, 0x07	; 7
     53a:	33 27       	eor	r19, r19
     53c:	12 16       	cp	r1, r18
     53e:	13 06       	cpc	r1, r19
     540:	0c f4       	brge	.+2      	; 0x544 <lengthOfFixedLetter+0x28>
     542:	01 96       	adiw	r24, 0x01	; 1
     544:	08 95       	ret

00000546 <drawLetter>:
     546:	2f 92       	push	r2
     548:	3f 92       	push	r3
     54a:	4f 92       	push	r4
     54c:	5f 92       	push	r5
     54e:	6f 92       	push	r6
     550:	7f 92       	push	r7
     552:	8f 92       	push	r8
     554:	9f 92       	push	r9
     556:	af 92       	push	r10
     558:	bf 92       	push	r11
     55a:	cf 92       	push	r12
     55c:	df 92       	push	r13
     55e:	ef 92       	push	r14
     560:	ff 92       	push	r15
     562:	0f 93       	push	r16
     564:	1f 93       	push	r17
     566:	cf 93       	push	r28
     568:	df 93       	push	r29
     56a:	f9 01       	movw	r30, r18
     56c:	37 96       	adiw	r30, 0x07	; 7
     56e:	14 16       	cp	r1, r20
     570:	15 06       	cpc	r1, r21
     572:	0c f0       	brlt	.+2      	; 0x576 <drawLetter+0x30>
     574:	53 c0       	rjmp	.+166    	; 0x61c <drawLetter+0xd6>
     576:	66 0f       	add	r22, r22
     578:	77 1f       	adc	r23, r23
     57a:	66 0f       	add	r22, r22
     57c:	77 1f       	adc	r23, r23
     57e:	66 0f       	add	r22, r22
     580:	77 1f       	adc	r23, r23
     582:	5b 01       	movw	r10, r22
     584:	a2 0e       	add	r10, r18
     586:	b3 1e       	adc	r11, r19
     588:	ec 01       	movw	r28, r24
     58a:	ce 0d       	add	r28, r14
     58c:	df 1d       	adc	r29, r15
     58e:	e4 0e       	add	r14, r20
     590:	f5 1e       	adc	r15, r21
     592:	4c 01       	movw	r8, r24
     594:	8e 0c       	add	r8, r14
     596:	9f 1c       	adc	r9, r15
     598:	6f 01       	movw	r12, r30
     59a:	c9 01       	movw	r24, r18
     59c:	68 94       	set
     59e:	ee 24       	eor	r14, r14
     5a0:	e7 f8       	bld	r14, 7
     5a2:	f1 2c       	mov	r15, r1
     5a4:	2e 2e       	mov	r2, r30
     5a6:	3f 2e       	mov	r3, r31
     5a8:	42 2e       	mov	r4, r18
     5aa:	53 2e       	mov	r5, r19
     5ac:	b6 01       	movw	r22, r12
     5ae:	4f df       	rcall	.-354    	; 0x44e <SetPageAddress>
     5b0:	b8 01       	movw	r22, r16
     5b2:	c8 01       	movw	r24, r16
     5b4:	30 df       	rcall	.-416    	; 0x416 <SetColomnAddress>
     5b6:	2b df       	rcall	.-426    	; 0x40e <MemoryWrite>
     5b8:	61 2c       	mov	r6, r1
     5ba:	71 2c       	mov	r7, r1
     5bc:	88 81       	ld	r24, Y
     5be:	28 2f       	mov	r18, r24
     5c0:	30 e0       	ldi	r19, 0x00	; 0
     5c2:	c7 01       	movw	r24, r14
     5c4:	06 2c       	mov	r0, r6
     5c6:	02 c0       	rjmp	.+4      	; 0x5cc <drawLetter+0x86>
     5c8:	95 95       	asr	r25
     5ca:	87 95       	ror	r24
     5cc:	0a 94       	dec	r0
     5ce:	e2 f7       	brpl	.-8      	; 0x5c8 <drawLetter+0x82>
     5d0:	82 23       	and	r24, r18
     5d2:	93 23       	and	r25, r19
     5d4:	89 2b       	or	r24, r25
     5d6:	21 f0       	breq	.+8      	; 0x5e0 <drawLetter+0x9a>
     5d8:	80 e0       	ldi	r24, 0x00	; 0
     5da:	90 e0       	ldi	r25, 0x00	; 0
     5dc:	cd de       	rcall	.-614    	; 0x378 <WriteData>
     5de:	03 c0       	rjmp	.+6      	; 0x5e6 <drawLetter+0xa0>
     5e0:	8f ef       	ldi	r24, 0xFF	; 255
     5e2:	9f ef       	ldi	r25, 0xFF	; 255
     5e4:	c9 de       	rcall	.-622    	; 0x378 <WriteData>
     5e6:	8f ef       	ldi	r24, 0xFF	; 255
     5e8:	68 1a       	sub	r6, r24
     5ea:	78 0a       	sbc	r7, r24
     5ec:	88 e0       	ldi	r24, 0x08	; 8
     5ee:	68 16       	cp	r6, r24
     5f0:	71 04       	cpc	r7, r1
     5f2:	21 f7       	brne	.-56     	; 0x5bc <drawLetter+0x76>
     5f4:	96 01       	movw	r18, r12
     5f6:	28 5f       	subi	r18, 0xF8	; 248
     5f8:	3f 4f       	sbci	r19, 0xFF	; 255
     5fa:	2a 15       	cp	r18, r10
     5fc:	3b 05       	cpc	r19, r11
     5fe:	24 f4       	brge	.+8      	; 0x608 <drawLetter+0xc2>
     600:	c6 01       	movw	r24, r12
     602:	01 96       	adiw	r24, 0x01	; 1
     604:	69 01       	movw	r12, r18
     606:	06 c0       	rjmp	.+12     	; 0x614 <drawLetter+0xce>
     608:	0f 5f       	subi	r16, 0xFF	; 255
     60a:	1f 4f       	sbci	r17, 0xFF	; 255
     60c:	c2 2c       	mov	r12, r2
     60e:	d3 2c       	mov	r13, r3
     610:	84 2d       	mov	r24, r4
     612:	95 2d       	mov	r25, r5
     614:	21 96       	adiw	r28, 0x01	; 1
     616:	c8 15       	cp	r28, r8
     618:	d9 05       	cpc	r29, r9
     61a:	41 f6       	brne	.-112    	; 0x5ac <drawLetter+0x66>
     61c:	df 91       	pop	r29
     61e:	cf 91       	pop	r28
     620:	1f 91       	pop	r17
     622:	0f 91       	pop	r16
     624:	ff 90       	pop	r15
     626:	ef 90       	pop	r14
     628:	df 90       	pop	r13
     62a:	cf 90       	pop	r12
     62c:	bf 90       	pop	r11
     62e:	af 90       	pop	r10
     630:	9f 90       	pop	r9
     632:	8f 90       	pop	r8
     634:	7f 90       	pop	r7
     636:	6f 90       	pop	r6
     638:	5f 90       	pop	r5
     63a:	4f 90       	pop	r4
     63c:	3f 90       	pop	r3
     63e:	2f 90       	pop	r2
     640:	08 95       	ret

00000642 <writeLetterHelper>:
     642:	cf 92       	push	r12
     644:	df 92       	push	r13
     646:	ef 92       	push	r14
     648:	ff 92       	push	r15
     64a:	0f 93       	push	r16
     64c:	1f 93       	push	r17
     64e:	cf 93       	push	r28
     650:	df 93       	push	r29
     652:	8a 01       	movw	r16, r20
     654:	20 91 88 15 	lds	r18, 0x1588	; 0x801588 <__data_end>
     658:	30 91 89 15 	lds	r19, 0x1589	; 0x801589 <__data_end+0x1>
     65c:	26 17       	cp	r18, r22
     65e:	37 07       	cpc	r19, r23
     660:	41 f0       	breq	.+16     	; 0x672 <writeLetterHelper+0x30>
     662:	70 93 89 15 	sts	0x1589, r23	; 0x801589 <__data_end+0x1>
     666:	60 93 88 15 	sts	0x1588, r22	; 0x801588 <__data_end>
     66a:	70 93 8b 15 	sts	0x158B, r23	; 0x80158b <start_x+0x1>
     66e:	60 93 8a 15 	sts	0x158A, r22	; 0x80158a <start_x>
     672:	ec 01       	movw	r28, r24
     674:	cc 0f       	add	r28, r28
     676:	dd 1f       	adc	r29, r29
     678:	fe 01       	movw	r30, r28
     67a:	ee 0f       	add	r30, r30
     67c:	ff 1f       	adc	r31, r31
     67e:	e2 5f       	subi	r30, 0xF2	; 242
     680:	fb 4e       	sbci	r31, 0xEB	; 235
     682:	e0 80       	ld	r14, Z
     684:	f1 80       	ldd	r15, Z+1	; 0x01
     686:	ce 01       	movw	r24, r28
     688:	49 df       	rcall	.-366    	; 0x51c <lengthOfFixedLetter>
     68a:	20 91 8a 15 	lds	r18, 0x158A	; 0x80158a <start_x>
     68e:	30 91 8b 15 	lds	r19, 0x158B	; 0x80158b <start_x+0x1>
     692:	fe 01       	movw	r30, r28
     694:	ee 0f       	add	r30, r30
     696:	ff 1f       	adc	r31, r31
     698:	ee 5e       	subi	r30, 0xEE	; 238
     69a:	fb 4e       	sbci	r31, 0xEB	; 235
     69c:	40 81       	ld	r20, Z
     69e:	51 81       	ldd	r21, Z+1	; 0x01
     6a0:	4e 19       	sub	r20, r14
     6a2:	5f 09       	sbc	r21, r15
     6a4:	6e 01       	movw	r12, r28
     6a6:	bc 01       	movw	r22, r24
     6a8:	82 e1       	ldi	r24, 0x12	; 18
     6aa:	92 e0       	ldi	r25, 0x02	; 2
     6ac:	4c df       	rcall	.-360    	; 0x546 <drawLetter>
     6ae:	80 91 8a 15 	lds	r24, 0x158A	; 0x80158a <start_x>
     6b2:	90 91 8b 15 	lds	r25, 0x158B	; 0x80158b <start_x+0x1>
     6b6:	01 96       	adiw	r24, 0x01	; 1
     6b8:	cc 0f       	add	r28, r28
     6ba:	dd 1f       	adc	r29, r29
     6bc:	c4 5f       	subi	r28, 0xF4	; 244
     6be:	db 4e       	sbci	r29, 0xEB	; 235
     6c0:	28 81       	ld	r18, Y
     6c2:	39 81       	ldd	r19, Y+1	; 0x01
     6c4:	82 0f       	add	r24, r18
     6c6:	93 1f       	adc	r25, r19
     6c8:	90 93 8b 15 	sts	0x158B, r25	; 0x80158b <start_x+0x1>
     6cc:	80 93 8a 15 	sts	0x158A, r24	; 0x80158a <start_x>
     6d0:	df 91       	pop	r29
     6d2:	cf 91       	pop	r28
     6d4:	1f 91       	pop	r17
     6d6:	0f 91       	pop	r16
     6d8:	ff 90       	pop	r15
     6da:	ef 90       	pop	r14
     6dc:	df 90       	pop	r13
     6de:	cf 90       	pop	r12
     6e0:	08 95       	ret

000006e2 <writeString>:
     6e2:	af 92       	push	r10
     6e4:	bf 92       	push	r11
     6e6:	cf 92       	push	r12
     6e8:	df 92       	push	r13
     6ea:	ef 92       	push	r14
     6ec:	ff 92       	push	r15
     6ee:	0f 93       	push	r16
     6f0:	1f 93       	push	r17
     6f2:	cf 93       	push	r28
     6f4:	df 93       	push	r29
     6f6:	cd b7       	in	r28, 0x3d	; 61
     6f8:	de b7       	in	r29, 0x3e	; 62
     6fa:	c6 5c       	subi	r28, 0xC6	; 198
     6fc:	d1 09       	sbc	r29, r1
     6fe:	0f b6       	in	r0, 0x3f	; 63
     700:	f8 94       	cli
     702:	de bf       	out	0x3e, r29	; 62
     704:	0f be       	out	0x3f, r0	; 63
     706:	cd bf       	out	0x3d, r28	; 61
     708:	fe 01       	movw	r30, r28
     70a:	31 96       	adiw	r30, 0x01	; 1
     70c:	26 ec       	ldi	r18, 0xC6	; 198
     70e:	df 01       	movw	r26, r30
     710:	1d 92       	st	X+, r1
     712:	2a 95       	dec	r18
     714:	e9 f7       	brne	.-6      	; 0x710 <writeString+0x2e>
     716:	fc 01       	movw	r30, r24
     718:	20 81       	ld	r18, Z
     71a:	22 23       	and	r18, r18
     71c:	a1 f1       	breq	.+104    	; 0x786 <writeString+0xa4>
     71e:	de 01       	movw	r26, r28
     720:	11 96       	adiw	r26, 0x01	; 1
     722:	7d 01       	movw	r14, r26
     724:	31 96       	adiw	r30, 0x01	; 1
     726:	00 e0       	ldi	r16, 0x00	; 0
     728:	10 e0       	ldi	r17, 0x00	; 0
     72a:	30 e0       	ldi	r19, 0x00	; 0
     72c:	2d 93       	st	X+, r18
     72e:	3d 93       	st	X+, r19
     730:	0f 5f       	subi	r16, 0xFF	; 255
     732:	1f 4f       	sbci	r17, 0xFF	; 255
     734:	21 91       	ld	r18, Z+
     736:	21 11       	cpse	r18, r1
     738:	f8 cf       	rjmp	.-16     	; 0x72a <writeString+0x48>
     73a:	10 16       	cp	r1, r16
     73c:	11 06       	cpc	r1, r17
     73e:	1c f5       	brge	.+70     	; 0x786 <writeString+0xa4>
     740:	5a 01       	movw	r10, r20
     742:	6b 01       	movw	r12, r22
     744:	00 0f       	add	r16, r16
     746:	11 1f       	adc	r17, r17
     748:	e1 e0       	ldi	r30, 0x01	; 1
     74a:	f0 e0       	ldi	r31, 0x00	; 0
     74c:	ec 0f       	add	r30, r28
     74e:	fd 1f       	adc	r31, r29
     750:	0e 0f       	add	r16, r30
     752:	1f 1f       	adc	r17, r31
     754:	d7 01       	movw	r26, r14
     756:	8d 91       	ld	r24, X+
     758:	9d 91       	ld	r25, X+
     75a:	7d 01       	movw	r14, r26
     75c:	81 97       	sbiw	r24, 0x21	; 33
     75e:	8f 3f       	cpi	r24, 0xFF	; 255
     760:	bf ef       	ldi	r27, 0xFF	; 255
     762:	9b 07       	cpc	r25, r27
     764:	21 f0       	breq	.+8      	; 0x76e <writeString+0x8c>
     766:	a5 01       	movw	r20, r10
     768:	b6 01       	movw	r22, r12
     76a:	6b df       	rcall	.-298    	; 0x642 <writeLetterHelper>
     76c:	09 c0       	rjmp	.+18     	; 0x780 <writeString+0x9e>
     76e:	80 91 8a 15 	lds	r24, 0x158A	; 0x80158a <start_x>
     772:	90 91 8b 15 	lds	r25, 0x158B	; 0x80158b <start_x+0x1>
     776:	06 96       	adiw	r24, 0x06	; 6
     778:	90 93 8b 15 	sts	0x158B, r25	; 0x80158b <start_x+0x1>
     77c:	80 93 8a 15 	sts	0x158A, r24	; 0x80158a <start_x>
     780:	0e 15       	cp	r16, r14
     782:	1f 05       	cpc	r17, r15
     784:	39 f7       	brne	.-50     	; 0x754 <writeString+0x72>
     786:	ca 53       	subi	r28, 0x3A	; 58
     788:	df 4f       	sbci	r29, 0xFF	; 255
     78a:	0f b6       	in	r0, 0x3f	; 63
     78c:	f8 94       	cli
     78e:	de bf       	out	0x3e, r29	; 62
     790:	0f be       	out	0x3f, r0	; 63
     792:	cd bf       	out	0x3d, r28	; 61
     794:	df 91       	pop	r29
     796:	cf 91       	pop	r28
     798:	1f 91       	pop	r17
     79a:	0f 91       	pop	r16
     79c:	ff 90       	pop	r15
     79e:	ef 90       	pop	r14
     7a0:	df 90       	pop	r13
     7a2:	cf 90       	pop	r12
     7a4:	bf 90       	pop	r11
     7a6:	af 90       	pop	r10
     7a8:	08 95       	ret

000007aa <writeInt>:
     7aa:	2f 92       	push	r2
     7ac:	3f 92       	push	r3
     7ae:	4f 92       	push	r4
     7b0:	5f 92       	push	r5
     7b2:	6f 92       	push	r6
     7b4:	7f 92       	push	r7
     7b6:	8f 92       	push	r8
     7b8:	9f 92       	push	r9
     7ba:	af 92       	push	r10
     7bc:	bf 92       	push	r11
     7be:	cf 92       	push	r12
     7c0:	df 92       	push	r13
     7c2:	ef 92       	push	r14
     7c4:	ff 92       	push	r15
     7c6:	0f 93       	push	r16
     7c8:	1f 93       	push	r17
     7ca:	cf 93       	push	r28
     7cc:	df 93       	push	r29
     7ce:	cd b7       	in	r28, 0x3d	; 61
     7d0:	de b7       	in	r29, 0x3e	; 62
     7d2:	2c 97       	sbiw	r28, 0x0c	; 12
     7d4:	0f b6       	in	r0, 0x3f	; 63
     7d6:	f8 94       	cli
     7d8:	de bf       	out	0x3e, r29	; 62
     7da:	0f be       	out	0x3f, r0	; 63
     7dc:	cd bf       	out	0x3d, r28	; 61
     7de:	4b 01       	movw	r8, r22
     7e0:	5c 01       	movw	r10, r24
     7e2:	6a 01       	movw	r12, r20
     7e4:	19 01       	movw	r2, r18
     7e6:	0f 2e       	mov	r0, r31
     7e8:	fa e0       	ldi	r31, 0x0A	; 10
     7ea:	4f 2e       	mov	r4, r31
     7ec:	51 2c       	mov	r5, r1
     7ee:	61 2c       	mov	r6, r1
     7f0:	71 2c       	mov	r7, r1
     7f2:	f0 2d       	mov	r31, r0
     7f4:	a3 01       	movw	r20, r6
     7f6:	92 01       	movw	r18, r4
     7f8:	0d d4       	rcall	.+2074   	; 0x1014 <__divmodsi4>
     7fa:	7a 83       	std	Y+2, r23	; 0x02
     7fc:	69 83       	std	Y+1, r22	; 0x01
     7fe:	ca 01       	movw	r24, r20
     800:	b9 01       	movw	r22, r18
     802:	a3 01       	movw	r20, r6
     804:	92 01       	movw	r18, r4
     806:	06 d4       	rcall	.+2060   	; 0x1014 <__divmodsi4>
     808:	7c 83       	std	Y+4, r23	; 0x04
     80a:	6b 83       	std	Y+3, r22	; 0x03
     80c:	c5 01       	movw	r24, r10
     80e:	b4 01       	movw	r22, r8
     810:	24 e6       	ldi	r18, 0x64	; 100
     812:	30 e0       	ldi	r19, 0x00	; 0
     814:	40 e0       	ldi	r20, 0x00	; 0
     816:	50 e0       	ldi	r21, 0x00	; 0
     818:	fd d3       	rcall	.+2042   	; 0x1014 <__divmodsi4>
     81a:	ca 01       	movw	r24, r20
     81c:	b9 01       	movw	r22, r18
     81e:	a3 01       	movw	r20, r6
     820:	92 01       	movw	r18, r4
     822:	f8 d3       	rcall	.+2032   	; 0x1014 <__divmodsi4>
     824:	7e 83       	std	Y+6, r23	; 0x06
     826:	6d 83       	std	Y+5, r22	; 0x05
     828:	c5 01       	movw	r24, r10
     82a:	b4 01       	movw	r22, r8
     82c:	28 ee       	ldi	r18, 0xE8	; 232
     82e:	33 e0       	ldi	r19, 0x03	; 3
     830:	40 e0       	ldi	r20, 0x00	; 0
     832:	50 e0       	ldi	r21, 0x00	; 0
     834:	ef d3       	rcall	.+2014   	; 0x1014 <__divmodsi4>
     836:	ca 01       	movw	r24, r20
     838:	b9 01       	movw	r22, r18
     83a:	a3 01       	movw	r20, r6
     83c:	92 01       	movw	r18, r4
     83e:	ea d3       	rcall	.+2004   	; 0x1014 <__divmodsi4>
     840:	78 87       	std	Y+8, r23	; 0x08
     842:	6f 83       	std	Y+7, r22	; 0x07
     844:	c5 01       	movw	r24, r10
     846:	b4 01       	movw	r22, r8
     848:	20 e1       	ldi	r18, 0x10	; 16
     84a:	37 e2       	ldi	r19, 0x27	; 39
     84c:	40 e0       	ldi	r20, 0x00	; 0
     84e:	50 e0       	ldi	r21, 0x00	; 0
     850:	e1 d3       	rcall	.+1986   	; 0x1014 <__divmodsi4>
     852:	ca 01       	movw	r24, r20
     854:	b9 01       	movw	r22, r18
     856:	a3 01       	movw	r20, r6
     858:	92 01       	movw	r18, r4
     85a:	dc d3       	rcall	.+1976   	; 0x1014 <__divmodsi4>
     85c:	7a 87       	std	Y+10, r23	; 0x0a
     85e:	69 87       	std	Y+9, r22	; 0x09
     860:	c5 01       	movw	r24, r10
     862:	b4 01       	movw	r22, r8
     864:	20 ea       	ldi	r18, 0xA0	; 160
     866:	36 e8       	ldi	r19, 0x86	; 134
     868:	41 e0       	ldi	r20, 0x01	; 1
     86a:	50 e0       	ldi	r21, 0x00	; 0
     86c:	d3 d3       	rcall	.+1958   	; 0x1014 <__divmodsi4>
     86e:	ca 01       	movw	r24, r20
     870:	b9 01       	movw	r22, r18
     872:	a3 01       	movw	r20, r6
     874:	92 01       	movw	r18, r4
     876:	ce d3       	rcall	.+1948   	; 0x1014 <__divmodsi4>
     878:	7c 87       	std	Y+12, r23	; 0x0c
     87a:	6b 87       	std	Y+11, r22	; 0x0b
     87c:	8e 01       	movw	r16, r28
     87e:	03 5f       	subi	r16, 0xF3	; 243
     880:	1f 4f       	sbci	r17, 0xFF	; 255
     882:	ce 01       	movw	r24, r28
     884:	01 96       	adiw	r24, 0x01	; 1
     886:	7c 01       	movw	r14, r24
     888:	40 e0       	ldi	r20, 0x00	; 0
     88a:	50 e0       	ldi	r21, 0x00	; 0
     88c:	99 24       	eor	r9, r9
     88e:	93 94       	inc	r9
     890:	81 2c       	mov	r8, r1
     892:	66 24       	eor	r6, r6
     894:	63 94       	inc	r6
     896:	71 2c       	mov	r7, r1
     898:	f8 01       	movw	r30, r16
     89a:	32 91       	ld	r19, -Z
     89c:	22 91       	ld	r18, -Z
     89e:	8f 01       	movw	r16, r30
     8a0:	99 2d       	mov	r25, r9
     8a2:	21 15       	cp	r18, r1
     8a4:	31 05       	cpc	r19, r1
     8a6:	09 f4       	brne	.+2      	; 0x8aa <writeInt+0x100>
     8a8:	98 2d       	mov	r25, r8
     8aa:	91 11       	cpse	r25, r1
     8ac:	07 c0       	rjmp	.+14     	; 0x8bc <writeInt+0x112>
     8ae:	99 2d       	mov	r25, r9
     8b0:	41 30       	cpi	r20, 0x01	; 1
     8b2:	51 05       	cpc	r21, r1
     8b4:	09 f0       	breq	.+2      	; 0x8b8 <writeInt+0x10e>
     8b6:	98 2d       	mov	r25, r8
     8b8:	99 23       	and	r25, r25
     8ba:	39 f0       	breq	.+14     	; 0x8ca <writeInt+0x120>
     8bc:	a1 01       	movw	r20, r2
     8be:	b6 01       	movw	r22, r12
     8c0:	c9 01       	movw	r24, r18
     8c2:	0f 96       	adiw	r24, 0x0f	; 15
     8c4:	be de       	rcall	.-644    	; 0x642 <writeLetterHelper>
     8c6:	46 2d       	mov	r20, r6
     8c8:	57 2d       	mov	r21, r7
     8ca:	0e 15       	cp	r16, r14
     8cc:	1f 05       	cpc	r17, r15
     8ce:	21 f7       	brne	.-56     	; 0x898 <writeInt+0xee>
     8d0:	d0 92 8b 15 	sts	0x158B, r13	; 0x80158b <start_x+0x1>
     8d4:	c0 92 8a 15 	sts	0x158A, r12	; 0x80158a <start_x>
     8d8:	2c 96       	adiw	r28, 0x0c	; 12
     8da:	0f b6       	in	r0, 0x3f	; 63
     8dc:	f8 94       	cli
     8de:	de bf       	out	0x3e, r29	; 62
     8e0:	0f be       	out	0x3f, r0	; 63
     8e2:	cd bf       	out	0x3d, r28	; 61
     8e4:	df 91       	pop	r29
     8e6:	cf 91       	pop	r28
     8e8:	1f 91       	pop	r17
     8ea:	0f 91       	pop	r16
     8ec:	ff 90       	pop	r15
     8ee:	ef 90       	pop	r14
     8f0:	df 90       	pop	r13
     8f2:	cf 90       	pop	r12
     8f4:	bf 90       	pop	r11
     8f6:	af 90       	pop	r10
     8f8:	9f 90       	pop	r9
     8fa:	8f 90       	pop	r8
     8fc:	7f 90       	pop	r7
     8fe:	6f 90       	pop	r6
     900:	5f 90       	pop	r5
     902:	4f 90       	pop	r4
     904:	3f 90       	pop	r3
     906:	2f 90       	pop	r2
     908:	08 95       	ret

0000090a <drawRed>:
     90a:	6f 92       	push	r6
     90c:	7f 92       	push	r7
     90e:	8f 92       	push	r8
     910:	9f 92       	push	r9
     912:	af 92       	push	r10
     914:	bf 92       	push	r11
     916:	cf 92       	push	r12
     918:	ef 92       	push	r14
     91a:	0f 93       	push	r16
     91c:	cf 93       	push	r28
     91e:	df 93       	push	r29
     920:	5c 01       	movw	r10, r24
     922:	4a 01       	movw	r8, r20
     924:	eb 01       	movw	r28, r22
     926:	c4 0f       	add	r28, r20
     928:	d5 1f       	adc	r29, r21
     92a:	cb 58       	subi	r28, 0x8B	; 139
     92c:	d1 09       	sbc	r29, r1
     92e:	8f ee       	ldi	r24, 0xEF	; 239
     930:	90 e0       	ldi	r25, 0x00	; 0
     932:	3c 01       	movw	r6, r24
     934:	64 1a       	sub	r6, r20
     936:	75 0a       	sbc	r7, r21
     938:	0f 2e       	mov	r0, r31
     93a:	ff e3       	ldi	r31, 0x3F	; 63
     93c:	cf 2e       	mov	r12, r31
     93e:	f0 2d       	mov	r31, r0
     940:	0f 2e       	mov	r0, r31
     942:	ff e1       	ldi	r31, 0x1F	; 31
     944:	ef 2e       	mov	r14, r31
     946:	f0 2d       	mov	r31, r0
     948:	0f e1       	ldi	r16, 0x1F	; 31
     94a:	9e 01       	movw	r18, r28
     94c:	42 e3       	ldi	r20, 0x32	; 50
     94e:	50 e0       	ldi	r21, 0x00	; 0
     950:	b3 01       	movw	r22, r6
     952:	82 e8       	ldi	r24, 0x82	; 130
     954:	90 e0       	ldi	r25, 0x00	; 0
     956:	97 dd       	rcall	.-1234   	; 0x486 <FillRectangle>
     958:	c1 2c       	mov	r12, r1
     95a:	e1 2c       	mov	r14, r1
     95c:	9e 01       	movw	r18, r28
     95e:	42 e3       	ldi	r20, 0x32	; 50
     960:	50 e0       	ldi	r21, 0x00	; 0
     962:	b3 01       	movw	r22, r6
     964:	82 e8       	ldi	r24, 0x82	; 130
     966:	90 e0       	ldi	r25, 0x00	; 0
     968:	8e dd       	rcall	.-1252   	; 0x486 <FillRectangle>
     96a:	23 eb       	ldi	r18, 0xB3	; 179
     96c:	30 e0       	ldi	r19, 0x00	; 0
     96e:	28 19       	sub	r18, r8
     970:	39 09       	sbc	r19, r9
     972:	b5 01       	movw	r22, r10
     974:	bb 0c       	add	r11, r11
     976:	88 0b       	sbc	r24, r24
     978:	99 0b       	sbc	r25, r25
     97a:	4c e8       	ldi	r20, 0x8C	; 140
     97c:	50 e0       	ldi	r21, 0x00	; 0
     97e:	15 df       	rcall	.-470    	; 0x7aa <writeInt>
     980:	df 91       	pop	r29
     982:	cf 91       	pop	r28
     984:	0f 91       	pop	r16
     986:	ef 90       	pop	r14
     988:	cf 90       	pop	r12
     98a:	bf 90       	pop	r11
     98c:	af 90       	pop	r10
     98e:	9f 90       	pop	r9
     990:	8f 90       	pop	r8
     992:	7f 90       	pop	r7
     994:	6f 90       	pop	r6
     996:	08 95       	ret

00000998 <drawGreen>:
     998:	6f 92       	push	r6
     99a:	7f 92       	push	r7
     99c:	8f 92       	push	r8
     99e:	9f 92       	push	r9
     9a0:	af 92       	push	r10
     9a2:	bf 92       	push	r11
     9a4:	cf 92       	push	r12
     9a6:	ef 92       	push	r14
     9a8:	0f 93       	push	r16
     9aa:	cf 93       	push	r28
     9ac:	df 93       	push	r29
     9ae:	5c 01       	movw	r10, r24
     9b0:	4a 01       	movw	r8, r20
     9b2:	eb 01       	movw	r28, r22
     9b4:	c4 0f       	add	r28, r20
     9b6:	d5 1f       	adc	r29, r21
     9b8:	cb 58       	subi	r28, 0x8B	; 139
     9ba:	d1 09       	sbc	r29, r1
     9bc:	8f ee       	ldi	r24, 0xEF	; 239
     9be:	90 e0       	ldi	r25, 0x00	; 0
     9c0:	3c 01       	movw	r6, r24
     9c2:	64 1a       	sub	r6, r20
     9c4:	75 0a       	sbc	r7, r21
     9c6:	0f 2e       	mov	r0, r31
     9c8:	ff e3       	ldi	r31, 0x3F	; 63
     9ca:	cf 2e       	mov	r12, r31
     9cc:	f0 2d       	mov	r31, r0
     9ce:	0f 2e       	mov	r0, r31
     9d0:	ff e1       	ldi	r31, 0x1F	; 31
     9d2:	ef 2e       	mov	r14, r31
     9d4:	f0 2d       	mov	r31, r0
     9d6:	0f e1       	ldi	r16, 0x1F	; 31
     9d8:	9e 01       	movw	r18, r28
     9da:	42 e3       	ldi	r20, 0x32	; 50
     9dc:	50 e0       	ldi	r21, 0x00	; 0
     9de:	b3 01       	movw	r22, r6
     9e0:	8e e1       	ldi	r24, 0x1E	; 30
     9e2:	90 e0       	ldi	r25, 0x00	; 0
     9e4:	50 dd       	rcall	.-1376   	; 0x486 <FillRectangle>
     9e6:	c1 2c       	mov	r12, r1
     9e8:	00 e0       	ldi	r16, 0x00	; 0
     9ea:	9e 01       	movw	r18, r28
     9ec:	42 e3       	ldi	r20, 0x32	; 50
     9ee:	50 e0       	ldi	r21, 0x00	; 0
     9f0:	b3 01       	movw	r22, r6
     9f2:	8e e1       	ldi	r24, 0x1E	; 30
     9f4:	90 e0       	ldi	r25, 0x00	; 0
     9f6:	47 dd       	rcall	.-1394   	; 0x486 <FillRectangle>
     9f8:	23 eb       	ldi	r18, 0xB3	; 179
     9fa:	30 e0       	ldi	r19, 0x00	; 0
     9fc:	28 19       	sub	r18, r8
     9fe:	39 09       	sbc	r19, r9
     a00:	b5 01       	movw	r22, r10
     a02:	bb 0c       	add	r11, r11
     a04:	88 0b       	sbc	r24, r24
     a06:	99 0b       	sbc	r25, r25
     a08:	48 e2       	ldi	r20, 0x28	; 40
     a0a:	50 e0       	ldi	r21, 0x00	; 0
     a0c:	ce de       	rcall	.-612    	; 0x7aa <writeInt>
     a0e:	df 91       	pop	r29
     a10:	cf 91       	pop	r28
     a12:	0f 91       	pop	r16
     a14:	ef 90       	pop	r14
     a16:	cf 90       	pop	r12
     a18:	bf 90       	pop	r11
     a1a:	af 90       	pop	r10
     a1c:	9f 90       	pop	r9
     a1e:	8f 90       	pop	r8
     a20:	7f 90       	pop	r7
     a22:	6f 90       	pop	r6
     a24:	08 95       	ret

00000a26 <drawBlue>:
     a26:	6f 92       	push	r6
     a28:	7f 92       	push	r7
     a2a:	8f 92       	push	r8
     a2c:	9f 92       	push	r9
     a2e:	af 92       	push	r10
     a30:	bf 92       	push	r11
     a32:	cf 92       	push	r12
     a34:	ef 92       	push	r14
     a36:	0f 93       	push	r16
     a38:	cf 93       	push	r28
     a3a:	df 93       	push	r29
     a3c:	5c 01       	movw	r10, r24
     a3e:	4a 01       	movw	r8, r20
     a40:	eb 01       	movw	r28, r22
     a42:	c4 0f       	add	r28, r20
     a44:	d5 1f       	adc	r29, r21
     a46:	cb 58       	subi	r28, 0x8B	; 139
     a48:	d1 09       	sbc	r29, r1
     a4a:	8f ee       	ldi	r24, 0xEF	; 239
     a4c:	90 e0       	ldi	r25, 0x00	; 0
     a4e:	3c 01       	movw	r6, r24
     a50:	64 1a       	sub	r6, r20
     a52:	75 0a       	sbc	r7, r21
     a54:	0f 2e       	mov	r0, r31
     a56:	ff e3       	ldi	r31, 0x3F	; 63
     a58:	cf 2e       	mov	r12, r31
     a5a:	f0 2d       	mov	r31, r0
     a5c:	0f 2e       	mov	r0, r31
     a5e:	ff e1       	ldi	r31, 0x1F	; 31
     a60:	ef 2e       	mov	r14, r31
     a62:	f0 2d       	mov	r31, r0
     a64:	0f e1       	ldi	r16, 0x1F	; 31
     a66:	9e 01       	movw	r18, r28
     a68:	42 e3       	ldi	r20, 0x32	; 50
     a6a:	50 e0       	ldi	r21, 0x00	; 0
     a6c:	b3 01       	movw	r22, r6
     a6e:	86 ee       	ldi	r24, 0xE6	; 230
     a70:	90 e0       	ldi	r25, 0x00	; 0
     a72:	09 dd       	rcall	.-1518   	; 0x486 <FillRectangle>
     a74:	0f 2e       	mov	r0, r31
     a76:	ff e1       	ldi	r31, 0x1F	; 31
     a78:	cf 2e       	mov	r12, r31
     a7a:	f0 2d       	mov	r31, r0
     a7c:	e1 2c       	mov	r14, r1
     a7e:	00 e0       	ldi	r16, 0x00	; 0
     a80:	9e 01       	movw	r18, r28
     a82:	42 e3       	ldi	r20, 0x32	; 50
     a84:	50 e0       	ldi	r21, 0x00	; 0
     a86:	b3 01       	movw	r22, r6
     a88:	86 ee       	ldi	r24, 0xE6	; 230
     a8a:	90 e0       	ldi	r25, 0x00	; 0
     a8c:	fc dc       	rcall	.-1544   	; 0x486 <FillRectangle>
     a8e:	23 eb       	ldi	r18, 0xB3	; 179
     a90:	30 e0       	ldi	r19, 0x00	; 0
     a92:	28 19       	sub	r18, r8
     a94:	39 09       	sbc	r19, r9
     a96:	b5 01       	movw	r22, r10
     a98:	bb 0c       	add	r11, r11
     a9a:	88 0b       	sbc	r24, r24
     a9c:	99 0b       	sbc	r25, r25
     a9e:	40 ef       	ldi	r20, 0xF0	; 240
     aa0:	50 e0       	ldi	r21, 0x00	; 0
     aa2:	83 de       	rcall	.-762    	; 0x7aa <writeInt>
     aa4:	df 91       	pop	r29
     aa6:	cf 91       	pop	r28
     aa8:	0f 91       	pop	r16
     aaa:	ef 90       	pop	r14
     aac:	cf 90       	pop	r12
     aae:	bf 90       	pop	r11
     ab0:	af 90       	pop	r10
     ab2:	9f 90       	pop	r9
     ab4:	8f 90       	pop	r8
     ab6:	7f 90       	pop	r7
     ab8:	6f 90       	pop	r6
     aba:	08 95       	ret

00000abc <drawTotal>:
     abc:	4f 92       	push	r4
     abe:	5f 92       	push	r5
     ac0:	6f 92       	push	r6
     ac2:	7f 92       	push	r7
     ac4:	8f 92       	push	r8
     ac6:	9f 92       	push	r9
     ac8:	af 92       	push	r10
     aca:	bf 92       	push	r11
     acc:	cf 92       	push	r12
     ace:	df 92       	push	r13
     ad0:	ef 92       	push	r14
     ad2:	ff 92       	push	r15
     ad4:	0f 93       	push	r16
     ad6:	1f 93       	push	r17
     ad8:	cf 93       	push	r28
     ada:	df 93       	push	r29
     adc:	cd b7       	in	r28, 0x3d	; 61
     ade:	de b7       	in	r29, 0x3e	; 62
     ae0:	2c 97       	sbiw	r28, 0x0c	; 12
     ae2:	0f b6       	in	r0, 0x3f	; 63
     ae4:	f8 94       	cli
     ae6:	de bf       	out	0x3e, r29	; 62
     ae8:	0f be       	out	0x3f, r0	; 63
     aea:	cd bf       	out	0x3d, r28	; 61
     aec:	2b 01       	movw	r4, r22
     aee:	3c 01       	movw	r6, r24
     af0:	29 83       	std	Y+1, r18	; 0x01
     af2:	3a 83       	std	Y+2, r19	; 0x02
     af4:	4b 83       	std	Y+3, r20	; 0x03
     af6:	5c 83       	std	Y+4, r21	; 0x04
     af8:	ed 82       	std	Y+5, r14	; 0x05
     afa:	fe 82       	std	Y+6, r15	; 0x06
     afc:	0f 83       	std	Y+7, r16	; 0x07
     afe:	18 87       	std	Y+8, r17	; 0x08
     b00:	79 d0       	rcall	.+242    	; 0xbf4 <__addsf3>
     b02:	a8 01       	movw	r20, r16
     b04:	97 01       	movw	r18, r14
     b06:	76 d0       	rcall	.+236    	; 0xbf4 <__addsf3>
     b08:	41 d1       	rcall	.+642    	; 0xd8c <__fixsfsi>
     b0a:	6b 01       	movw	r12, r22
     b0c:	77 0f       	add	r23, r23
     b0e:	ee 08       	sbc	r14, r14
     b10:	ff 08       	sbc	r15, r15
     b12:	c7 01       	movw	r24, r14
     b14:	b6 01       	movw	r22, r12
     b16:	6d d1       	rcall	.+730    	; 0xdf2 <__floatsisf>
     b18:	4b 01       	movw	r8, r22
     b1a:	5c 01       	movw	r10, r24
     b1c:	9b 01       	movw	r18, r22
     b1e:	ac 01       	movw	r20, r24
     b20:	c3 01       	movw	r24, r6
     b22:	b2 01       	movw	r22, r4
     b24:	cb d0       	rcall	.+406    	; 0xcbc <__divsf3>
     b26:	20 e0       	ldi	r18, 0x00	; 0
     b28:	30 e0       	ldi	r19, 0x00	; 0
     b2a:	45 e1       	ldi	r20, 0x15	; 21
     b2c:	53 e4       	ldi	r21, 0x43	; 67
     b2e:	ed d1       	rcall	.+986    	; 0xf0a <__mulsf3>
     b30:	2d d1       	rcall	.+602    	; 0xd8c <__fixsfsi>
     b32:	69 87       	std	Y+9, r22	; 0x09
     b34:	7a 87       	std	Y+10, r23	; 0x0a
     b36:	8b 87       	std	Y+11, r24	; 0x0b
     b38:	9c 87       	std	Y+12, r25	; 0x0c
     b3a:	c3 01       	movw	r24, r6
     b3c:	b2 01       	movw	r22, r4
     b3e:	26 d1       	rcall	.+588    	; 0xd8c <__fixsfsi>
     b40:	dc 01       	movw	r26, r24
     b42:	cb 01       	movw	r24, r22
     b44:	49 85       	ldd	r20, Y+9	; 0x09
     b46:	5a 85       	ldd	r21, Y+10	; 0x0a
     b48:	6b e8       	ldi	r22, 0x8B	; 139
     b4a:	70 e0       	ldi	r23, 0x00	; 0
     b4c:	de de       	rcall	.-580    	; 0x90a <drawRed>
     b4e:	a5 01       	movw	r20, r10
     b50:	94 01       	movw	r18, r8
     b52:	69 81       	ldd	r22, Y+1	; 0x01
     b54:	7a 81       	ldd	r23, Y+2	; 0x02
     b56:	8b 81       	ldd	r24, Y+3	; 0x03
     b58:	9c 81       	ldd	r25, Y+4	; 0x04
     b5a:	b0 d0       	rcall	.+352    	; 0xcbc <__divsf3>
     b5c:	20 e0       	ldi	r18, 0x00	; 0
     b5e:	30 e0       	ldi	r19, 0x00	; 0
     b60:	45 e1       	ldi	r20, 0x15	; 21
     b62:	53 e4       	ldi	r21, 0x43	; 67
     b64:	d2 d1       	rcall	.+932    	; 0xf0a <__mulsf3>
     b66:	12 d1       	rcall	.+548    	; 0xd8c <__fixsfsi>
     b68:	2b 01       	movw	r4, r22
     b6a:	3c 01       	movw	r6, r24
     b6c:	69 81       	ldd	r22, Y+1	; 0x01
     b6e:	7a 81       	ldd	r23, Y+2	; 0x02
     b70:	8b 81       	ldd	r24, Y+3	; 0x03
     b72:	9c 81       	ldd	r25, Y+4	; 0x04
     b74:	0b d1       	rcall	.+534    	; 0xd8c <__fixsfsi>
     b76:	dc 01       	movw	r26, r24
     b78:	cb 01       	movw	r24, r22
     b7a:	a2 01       	movw	r20, r4
     b7c:	6b e8       	ldi	r22, 0x8B	; 139
     b7e:	70 e0       	ldi	r23, 0x00	; 0
     b80:	0b df       	rcall	.-490    	; 0x998 <drawGreen>
     b82:	a5 01       	movw	r20, r10
     b84:	94 01       	movw	r18, r8
     b86:	6d 81       	ldd	r22, Y+5	; 0x05
     b88:	7e 81       	ldd	r23, Y+6	; 0x06
     b8a:	8f 81       	ldd	r24, Y+7	; 0x07
     b8c:	98 85       	ldd	r25, Y+8	; 0x08
     b8e:	96 d0       	rcall	.+300    	; 0xcbc <__divsf3>
     b90:	20 e0       	ldi	r18, 0x00	; 0
     b92:	30 e0       	ldi	r19, 0x00	; 0
     b94:	45 e1       	ldi	r20, 0x15	; 21
     b96:	53 e4       	ldi	r21, 0x43	; 67
     b98:	b8 d1       	rcall	.+880    	; 0xf0a <__mulsf3>
     b9a:	f8 d0       	rcall	.+496    	; 0xd8c <__fixsfsi>
     b9c:	4b 01       	movw	r8, r22
     b9e:	5c 01       	movw	r10, r24
     ba0:	6d 81       	ldd	r22, Y+5	; 0x05
     ba2:	7e 81       	ldd	r23, Y+6	; 0x06
     ba4:	8f 81       	ldd	r24, Y+7	; 0x07
     ba6:	98 85       	ldd	r25, Y+8	; 0x08
     ba8:	f1 d0       	rcall	.+482    	; 0xd8c <__fixsfsi>
     baa:	dc 01       	movw	r26, r24
     bac:	cb 01       	movw	r24, r22
     bae:	a4 01       	movw	r20, r8
     bb0:	6b e8       	ldi	r22, 0x8B	; 139
     bb2:	70 e0       	ldi	r23, 0x00	; 0
     bb4:	38 df       	rcall	.-400    	; 0xa26 <drawBlue>
     bb6:	2a e0       	ldi	r18, 0x0A	; 10
     bb8:	30 e0       	ldi	r19, 0x00	; 0
     bba:	4a ef       	ldi	r20, 0xFA	; 250
     bbc:	50 e0       	ldi	r21, 0x00	; 0
     bbe:	c7 01       	movw	r24, r14
     bc0:	b6 01       	movw	r22, r12
     bc2:	f3 dd       	rcall	.-1050   	; 0x7aa <writeInt>
     bc4:	2c 96       	adiw	r28, 0x0c	; 12
     bc6:	0f b6       	in	r0, 0x3f	; 63
     bc8:	f8 94       	cli
     bca:	de bf       	out	0x3e, r29	; 62
     bcc:	0f be       	out	0x3f, r0	; 63
     bce:	cd bf       	out	0x3d, r28	; 61
     bd0:	df 91       	pop	r29
     bd2:	cf 91       	pop	r28
     bd4:	1f 91       	pop	r17
     bd6:	0f 91       	pop	r16
     bd8:	ff 90       	pop	r15
     bda:	ef 90       	pop	r14
     bdc:	df 90       	pop	r13
     bde:	cf 90       	pop	r12
     be0:	bf 90       	pop	r11
     be2:	af 90       	pop	r10
     be4:	9f 90       	pop	r9
     be6:	8f 90       	pop	r8
     be8:	7f 90       	pop	r7
     bea:	6f 90       	pop	r6
     bec:	5f 90       	pop	r5
     bee:	4f 90       	pop	r4
     bf0:	08 95       	ret

00000bf2 <__subsf3>:
     bf2:	50 58       	subi	r21, 0x80	; 128

00000bf4 <__addsf3>:
     bf4:	bb 27       	eor	r27, r27
     bf6:	aa 27       	eor	r26, r26
     bf8:	0e d0       	rcall	.+28     	; 0xc16 <__addsf3x>
     bfa:	4d c1       	rjmp	.+666    	; 0xe96 <__fp_round>
     bfc:	3e d1       	rcall	.+636    	; 0xe7a <__fp_pscA>
     bfe:	30 f0       	brcs	.+12     	; 0xc0c <__addsf3+0x18>
     c00:	43 d1       	rcall	.+646    	; 0xe88 <__fp_pscB>
     c02:	20 f0       	brcs	.+8      	; 0xc0c <__addsf3+0x18>
     c04:	31 f4       	brne	.+12     	; 0xc12 <__addsf3+0x1e>
     c06:	9f 3f       	cpi	r25, 0xFF	; 255
     c08:	11 f4       	brne	.+4      	; 0xc0e <__addsf3+0x1a>
     c0a:	1e f4       	brtc	.+6      	; 0xc12 <__addsf3+0x1e>
     c0c:	33 c1       	rjmp	.+614    	; 0xe74 <__fp_nan>
     c0e:	0e f4       	brtc	.+2      	; 0xc12 <__addsf3+0x1e>
     c10:	e0 95       	com	r30
     c12:	e7 fb       	bst	r30, 7
     c14:	29 c1       	rjmp	.+594    	; 0xe68 <__fp_inf>

00000c16 <__addsf3x>:
     c16:	e9 2f       	mov	r30, r25
     c18:	4f d1       	rcall	.+670    	; 0xeb8 <__fp_split3>
     c1a:	80 f3       	brcs	.-32     	; 0xbfc <__addsf3+0x8>
     c1c:	ba 17       	cp	r27, r26
     c1e:	62 07       	cpc	r22, r18
     c20:	73 07       	cpc	r23, r19
     c22:	84 07       	cpc	r24, r20
     c24:	95 07       	cpc	r25, r21
     c26:	18 f0       	brcs	.+6      	; 0xc2e <__addsf3x+0x18>
     c28:	71 f4       	brne	.+28     	; 0xc46 <__addsf3x+0x30>
     c2a:	9e f5       	brtc	.+102    	; 0xc92 <__addsf3x+0x7c>
     c2c:	67 c1       	rjmp	.+718    	; 0xefc <__fp_zero>
     c2e:	0e f4       	brtc	.+2      	; 0xc32 <__addsf3x+0x1c>
     c30:	e0 95       	com	r30
     c32:	0b 2e       	mov	r0, r27
     c34:	ba 2f       	mov	r27, r26
     c36:	a0 2d       	mov	r26, r0
     c38:	0b 01       	movw	r0, r22
     c3a:	b9 01       	movw	r22, r18
     c3c:	90 01       	movw	r18, r0
     c3e:	0c 01       	movw	r0, r24
     c40:	ca 01       	movw	r24, r20
     c42:	a0 01       	movw	r20, r0
     c44:	11 24       	eor	r1, r1
     c46:	ff 27       	eor	r31, r31
     c48:	59 1b       	sub	r21, r25
     c4a:	99 f0       	breq	.+38     	; 0xc72 <__addsf3x+0x5c>
     c4c:	59 3f       	cpi	r21, 0xF9	; 249
     c4e:	50 f4       	brcc	.+20     	; 0xc64 <__addsf3x+0x4e>
     c50:	50 3e       	cpi	r21, 0xE0	; 224
     c52:	68 f1       	brcs	.+90     	; 0xcae <__addsf3x+0x98>
     c54:	1a 16       	cp	r1, r26
     c56:	f0 40       	sbci	r31, 0x00	; 0
     c58:	a2 2f       	mov	r26, r18
     c5a:	23 2f       	mov	r18, r19
     c5c:	34 2f       	mov	r19, r20
     c5e:	44 27       	eor	r20, r20
     c60:	58 5f       	subi	r21, 0xF8	; 248
     c62:	f3 cf       	rjmp	.-26     	; 0xc4a <__addsf3x+0x34>
     c64:	46 95       	lsr	r20
     c66:	37 95       	ror	r19
     c68:	27 95       	ror	r18
     c6a:	a7 95       	ror	r26
     c6c:	f0 40       	sbci	r31, 0x00	; 0
     c6e:	53 95       	inc	r21
     c70:	c9 f7       	brne	.-14     	; 0xc64 <__addsf3x+0x4e>
     c72:	7e f4       	brtc	.+30     	; 0xc92 <__addsf3x+0x7c>
     c74:	1f 16       	cp	r1, r31
     c76:	ba 0b       	sbc	r27, r26
     c78:	62 0b       	sbc	r22, r18
     c7a:	73 0b       	sbc	r23, r19
     c7c:	84 0b       	sbc	r24, r20
     c7e:	ba f0       	brmi	.+46     	; 0xcae <__addsf3x+0x98>
     c80:	91 50       	subi	r25, 0x01	; 1
     c82:	a1 f0       	breq	.+40     	; 0xcac <__addsf3x+0x96>
     c84:	ff 0f       	add	r31, r31
     c86:	bb 1f       	adc	r27, r27
     c88:	66 1f       	adc	r22, r22
     c8a:	77 1f       	adc	r23, r23
     c8c:	88 1f       	adc	r24, r24
     c8e:	c2 f7       	brpl	.-16     	; 0xc80 <__addsf3x+0x6a>
     c90:	0e c0       	rjmp	.+28     	; 0xcae <__addsf3x+0x98>
     c92:	ba 0f       	add	r27, r26
     c94:	62 1f       	adc	r22, r18
     c96:	73 1f       	adc	r23, r19
     c98:	84 1f       	adc	r24, r20
     c9a:	48 f4       	brcc	.+18     	; 0xcae <__addsf3x+0x98>
     c9c:	87 95       	ror	r24
     c9e:	77 95       	ror	r23
     ca0:	67 95       	ror	r22
     ca2:	b7 95       	ror	r27
     ca4:	f7 95       	ror	r31
     ca6:	9e 3f       	cpi	r25, 0xFE	; 254
     ca8:	08 f0       	brcs	.+2      	; 0xcac <__addsf3x+0x96>
     caa:	b3 cf       	rjmp	.-154    	; 0xc12 <__addsf3+0x1e>
     cac:	93 95       	inc	r25
     cae:	88 0f       	add	r24, r24
     cb0:	08 f0       	brcs	.+2      	; 0xcb4 <__addsf3x+0x9e>
     cb2:	99 27       	eor	r25, r25
     cb4:	ee 0f       	add	r30, r30
     cb6:	97 95       	ror	r25
     cb8:	87 95       	ror	r24
     cba:	08 95       	ret

00000cbc <__divsf3>:
     cbc:	0c d0       	rcall	.+24     	; 0xcd6 <__divsf3x>
     cbe:	eb c0       	rjmp	.+470    	; 0xe96 <__fp_round>
     cc0:	e3 d0       	rcall	.+454    	; 0xe88 <__fp_pscB>
     cc2:	40 f0       	brcs	.+16     	; 0xcd4 <__divsf3+0x18>
     cc4:	da d0       	rcall	.+436    	; 0xe7a <__fp_pscA>
     cc6:	30 f0       	brcs	.+12     	; 0xcd4 <__divsf3+0x18>
     cc8:	21 f4       	brne	.+8      	; 0xcd2 <__divsf3+0x16>
     cca:	5f 3f       	cpi	r21, 0xFF	; 255
     ccc:	19 f0       	breq	.+6      	; 0xcd4 <__divsf3+0x18>
     cce:	cc c0       	rjmp	.+408    	; 0xe68 <__fp_inf>
     cd0:	51 11       	cpse	r21, r1
     cd2:	15 c1       	rjmp	.+554    	; 0xefe <__fp_szero>
     cd4:	cf c0       	rjmp	.+414    	; 0xe74 <__fp_nan>

00000cd6 <__divsf3x>:
     cd6:	f0 d0       	rcall	.+480    	; 0xeb8 <__fp_split3>
     cd8:	98 f3       	brcs	.-26     	; 0xcc0 <__divsf3+0x4>

00000cda <__divsf3_pse>:
     cda:	99 23       	and	r25, r25
     cdc:	c9 f3       	breq	.-14     	; 0xcd0 <__divsf3+0x14>
     cde:	55 23       	and	r21, r21
     ce0:	b1 f3       	breq	.-20     	; 0xcce <__divsf3+0x12>
     ce2:	95 1b       	sub	r25, r21
     ce4:	55 0b       	sbc	r21, r21
     ce6:	bb 27       	eor	r27, r27
     ce8:	aa 27       	eor	r26, r26
     cea:	62 17       	cp	r22, r18
     cec:	73 07       	cpc	r23, r19
     cee:	84 07       	cpc	r24, r20
     cf0:	38 f0       	brcs	.+14     	; 0xd00 <__divsf3_pse+0x26>
     cf2:	9f 5f       	subi	r25, 0xFF	; 255
     cf4:	5f 4f       	sbci	r21, 0xFF	; 255
     cf6:	22 0f       	add	r18, r18
     cf8:	33 1f       	adc	r19, r19
     cfa:	44 1f       	adc	r20, r20
     cfc:	aa 1f       	adc	r26, r26
     cfe:	a9 f3       	breq	.-22     	; 0xcea <__divsf3_pse+0x10>
     d00:	33 d0       	rcall	.+102    	; 0xd68 <__divsf3_pse+0x8e>
     d02:	0e 2e       	mov	r0, r30
     d04:	3a f0       	brmi	.+14     	; 0xd14 <__divsf3_pse+0x3a>
     d06:	e0 e8       	ldi	r30, 0x80	; 128
     d08:	30 d0       	rcall	.+96     	; 0xd6a <__divsf3_pse+0x90>
     d0a:	91 50       	subi	r25, 0x01	; 1
     d0c:	50 40       	sbci	r21, 0x00	; 0
     d0e:	e6 95       	lsr	r30
     d10:	00 1c       	adc	r0, r0
     d12:	ca f7       	brpl	.-14     	; 0xd06 <__divsf3_pse+0x2c>
     d14:	29 d0       	rcall	.+82     	; 0xd68 <__divsf3_pse+0x8e>
     d16:	fe 2f       	mov	r31, r30
     d18:	27 d0       	rcall	.+78     	; 0xd68 <__divsf3_pse+0x8e>
     d1a:	66 0f       	add	r22, r22
     d1c:	77 1f       	adc	r23, r23
     d1e:	88 1f       	adc	r24, r24
     d20:	bb 1f       	adc	r27, r27
     d22:	26 17       	cp	r18, r22
     d24:	37 07       	cpc	r19, r23
     d26:	48 07       	cpc	r20, r24
     d28:	ab 07       	cpc	r26, r27
     d2a:	b0 e8       	ldi	r27, 0x80	; 128
     d2c:	09 f0       	breq	.+2      	; 0xd30 <__divsf3_pse+0x56>
     d2e:	bb 0b       	sbc	r27, r27
     d30:	80 2d       	mov	r24, r0
     d32:	bf 01       	movw	r22, r30
     d34:	ff 27       	eor	r31, r31
     d36:	93 58       	subi	r25, 0x83	; 131
     d38:	5f 4f       	sbci	r21, 0xFF	; 255
     d3a:	2a f0       	brmi	.+10     	; 0xd46 <__divsf3_pse+0x6c>
     d3c:	9e 3f       	cpi	r25, 0xFE	; 254
     d3e:	51 05       	cpc	r21, r1
     d40:	68 f0       	brcs	.+26     	; 0xd5c <__divsf3_pse+0x82>
     d42:	92 c0       	rjmp	.+292    	; 0xe68 <__fp_inf>
     d44:	dc c0       	rjmp	.+440    	; 0xefe <__fp_szero>
     d46:	5f 3f       	cpi	r21, 0xFF	; 255
     d48:	ec f3       	brlt	.-6      	; 0xd44 <__divsf3_pse+0x6a>
     d4a:	98 3e       	cpi	r25, 0xE8	; 232
     d4c:	dc f3       	brlt	.-10     	; 0xd44 <__divsf3_pse+0x6a>
     d4e:	86 95       	lsr	r24
     d50:	77 95       	ror	r23
     d52:	67 95       	ror	r22
     d54:	b7 95       	ror	r27
     d56:	f7 95       	ror	r31
     d58:	9f 5f       	subi	r25, 0xFF	; 255
     d5a:	c9 f7       	brne	.-14     	; 0xd4e <__divsf3_pse+0x74>
     d5c:	88 0f       	add	r24, r24
     d5e:	91 1d       	adc	r25, r1
     d60:	96 95       	lsr	r25
     d62:	87 95       	ror	r24
     d64:	97 f9       	bld	r25, 7
     d66:	08 95       	ret
     d68:	e1 e0       	ldi	r30, 0x01	; 1
     d6a:	66 0f       	add	r22, r22
     d6c:	77 1f       	adc	r23, r23
     d6e:	88 1f       	adc	r24, r24
     d70:	bb 1f       	adc	r27, r27
     d72:	62 17       	cp	r22, r18
     d74:	73 07       	cpc	r23, r19
     d76:	84 07       	cpc	r24, r20
     d78:	ba 07       	cpc	r27, r26
     d7a:	20 f0       	brcs	.+8      	; 0xd84 <__divsf3_pse+0xaa>
     d7c:	62 1b       	sub	r22, r18
     d7e:	73 0b       	sbc	r23, r19
     d80:	84 0b       	sbc	r24, r20
     d82:	ba 0b       	sbc	r27, r26
     d84:	ee 1f       	adc	r30, r30
     d86:	88 f7       	brcc	.-30     	; 0xd6a <__divsf3_pse+0x90>
     d88:	e0 95       	com	r30
     d8a:	08 95       	ret

00000d8c <__fixsfsi>:
     d8c:	04 d0       	rcall	.+8      	; 0xd96 <__fixunssfsi>
     d8e:	68 94       	set
     d90:	b1 11       	cpse	r27, r1
     d92:	b5 c0       	rjmp	.+362    	; 0xefe <__fp_szero>
     d94:	08 95       	ret

00000d96 <__fixunssfsi>:
     d96:	98 d0       	rcall	.+304    	; 0xec8 <__fp_splitA>
     d98:	88 f0       	brcs	.+34     	; 0xdbc <__fixunssfsi+0x26>
     d9a:	9f 57       	subi	r25, 0x7F	; 127
     d9c:	90 f0       	brcs	.+36     	; 0xdc2 <__fixunssfsi+0x2c>
     d9e:	b9 2f       	mov	r27, r25
     da0:	99 27       	eor	r25, r25
     da2:	b7 51       	subi	r27, 0x17	; 23
     da4:	a0 f0       	brcs	.+40     	; 0xdce <__fixunssfsi+0x38>
     da6:	d1 f0       	breq	.+52     	; 0xddc <__fixunssfsi+0x46>
     da8:	66 0f       	add	r22, r22
     daa:	77 1f       	adc	r23, r23
     dac:	88 1f       	adc	r24, r24
     dae:	99 1f       	adc	r25, r25
     db0:	1a f0       	brmi	.+6      	; 0xdb8 <__fixunssfsi+0x22>
     db2:	ba 95       	dec	r27
     db4:	c9 f7       	brne	.-14     	; 0xda8 <__fixunssfsi+0x12>
     db6:	12 c0       	rjmp	.+36     	; 0xddc <__fixunssfsi+0x46>
     db8:	b1 30       	cpi	r27, 0x01	; 1
     dba:	81 f0       	breq	.+32     	; 0xddc <__fixunssfsi+0x46>
     dbc:	9f d0       	rcall	.+318    	; 0xefc <__fp_zero>
     dbe:	b1 e0       	ldi	r27, 0x01	; 1
     dc0:	08 95       	ret
     dc2:	9c c0       	rjmp	.+312    	; 0xefc <__fp_zero>
     dc4:	67 2f       	mov	r22, r23
     dc6:	78 2f       	mov	r23, r24
     dc8:	88 27       	eor	r24, r24
     dca:	b8 5f       	subi	r27, 0xF8	; 248
     dcc:	39 f0       	breq	.+14     	; 0xddc <__fixunssfsi+0x46>
     dce:	b9 3f       	cpi	r27, 0xF9	; 249
     dd0:	cc f3       	brlt	.-14     	; 0xdc4 <__fixunssfsi+0x2e>
     dd2:	86 95       	lsr	r24
     dd4:	77 95       	ror	r23
     dd6:	67 95       	ror	r22
     dd8:	b3 95       	inc	r27
     dda:	d9 f7       	brne	.-10     	; 0xdd2 <__fixunssfsi+0x3c>
     ddc:	3e f4       	brtc	.+14     	; 0xdec <__fixunssfsi+0x56>
     dde:	90 95       	com	r25
     de0:	80 95       	com	r24
     de2:	70 95       	com	r23
     de4:	61 95       	neg	r22
     de6:	7f 4f       	sbci	r23, 0xFF	; 255
     de8:	8f 4f       	sbci	r24, 0xFF	; 255
     dea:	9f 4f       	sbci	r25, 0xFF	; 255
     dec:	08 95       	ret

00000dee <__floatunsisf>:
     dee:	e8 94       	clt
     df0:	09 c0       	rjmp	.+18     	; 0xe04 <__floatsisf+0x12>

00000df2 <__floatsisf>:
     df2:	97 fb       	bst	r25, 7
     df4:	3e f4       	brtc	.+14     	; 0xe04 <__floatsisf+0x12>
     df6:	90 95       	com	r25
     df8:	80 95       	com	r24
     dfa:	70 95       	com	r23
     dfc:	61 95       	neg	r22
     dfe:	7f 4f       	sbci	r23, 0xFF	; 255
     e00:	8f 4f       	sbci	r24, 0xFF	; 255
     e02:	9f 4f       	sbci	r25, 0xFF	; 255
     e04:	99 23       	and	r25, r25
     e06:	a9 f0       	breq	.+42     	; 0xe32 <__floatsisf+0x40>
     e08:	f9 2f       	mov	r31, r25
     e0a:	96 e9       	ldi	r25, 0x96	; 150
     e0c:	bb 27       	eor	r27, r27
     e0e:	93 95       	inc	r25
     e10:	f6 95       	lsr	r31
     e12:	87 95       	ror	r24
     e14:	77 95       	ror	r23
     e16:	67 95       	ror	r22
     e18:	b7 95       	ror	r27
     e1a:	f1 11       	cpse	r31, r1
     e1c:	f8 cf       	rjmp	.-16     	; 0xe0e <__floatsisf+0x1c>
     e1e:	fa f4       	brpl	.+62     	; 0xe5e <__floatsisf+0x6c>
     e20:	bb 0f       	add	r27, r27
     e22:	11 f4       	brne	.+4      	; 0xe28 <__floatsisf+0x36>
     e24:	60 ff       	sbrs	r22, 0
     e26:	1b c0       	rjmp	.+54     	; 0xe5e <__floatsisf+0x6c>
     e28:	6f 5f       	subi	r22, 0xFF	; 255
     e2a:	7f 4f       	sbci	r23, 0xFF	; 255
     e2c:	8f 4f       	sbci	r24, 0xFF	; 255
     e2e:	9f 4f       	sbci	r25, 0xFF	; 255
     e30:	16 c0       	rjmp	.+44     	; 0xe5e <__floatsisf+0x6c>
     e32:	88 23       	and	r24, r24
     e34:	11 f0       	breq	.+4      	; 0xe3a <__floatsisf+0x48>
     e36:	96 e9       	ldi	r25, 0x96	; 150
     e38:	11 c0       	rjmp	.+34     	; 0xe5c <__floatsisf+0x6a>
     e3a:	77 23       	and	r23, r23
     e3c:	21 f0       	breq	.+8      	; 0xe46 <__floatsisf+0x54>
     e3e:	9e e8       	ldi	r25, 0x8E	; 142
     e40:	87 2f       	mov	r24, r23
     e42:	76 2f       	mov	r23, r22
     e44:	05 c0       	rjmp	.+10     	; 0xe50 <__floatsisf+0x5e>
     e46:	66 23       	and	r22, r22
     e48:	71 f0       	breq	.+28     	; 0xe66 <__floatsisf+0x74>
     e4a:	96 e8       	ldi	r25, 0x86	; 134
     e4c:	86 2f       	mov	r24, r22
     e4e:	70 e0       	ldi	r23, 0x00	; 0
     e50:	60 e0       	ldi	r22, 0x00	; 0
     e52:	2a f0       	brmi	.+10     	; 0xe5e <__floatsisf+0x6c>
     e54:	9a 95       	dec	r25
     e56:	66 0f       	add	r22, r22
     e58:	77 1f       	adc	r23, r23
     e5a:	88 1f       	adc	r24, r24
     e5c:	da f7       	brpl	.-10     	; 0xe54 <__floatsisf+0x62>
     e5e:	88 0f       	add	r24, r24
     e60:	96 95       	lsr	r25
     e62:	87 95       	ror	r24
     e64:	97 f9       	bld	r25, 7
     e66:	08 95       	ret

00000e68 <__fp_inf>:
     e68:	97 f9       	bld	r25, 7
     e6a:	9f 67       	ori	r25, 0x7F	; 127
     e6c:	80 e8       	ldi	r24, 0x80	; 128
     e6e:	70 e0       	ldi	r23, 0x00	; 0
     e70:	60 e0       	ldi	r22, 0x00	; 0
     e72:	08 95       	ret

00000e74 <__fp_nan>:
     e74:	9f ef       	ldi	r25, 0xFF	; 255
     e76:	80 ec       	ldi	r24, 0xC0	; 192
     e78:	08 95       	ret

00000e7a <__fp_pscA>:
     e7a:	00 24       	eor	r0, r0
     e7c:	0a 94       	dec	r0
     e7e:	16 16       	cp	r1, r22
     e80:	17 06       	cpc	r1, r23
     e82:	18 06       	cpc	r1, r24
     e84:	09 06       	cpc	r0, r25
     e86:	08 95       	ret

00000e88 <__fp_pscB>:
     e88:	00 24       	eor	r0, r0
     e8a:	0a 94       	dec	r0
     e8c:	12 16       	cp	r1, r18
     e8e:	13 06       	cpc	r1, r19
     e90:	14 06       	cpc	r1, r20
     e92:	05 06       	cpc	r0, r21
     e94:	08 95       	ret

00000e96 <__fp_round>:
     e96:	09 2e       	mov	r0, r25
     e98:	03 94       	inc	r0
     e9a:	00 0c       	add	r0, r0
     e9c:	11 f4       	brne	.+4      	; 0xea2 <__fp_round+0xc>
     e9e:	88 23       	and	r24, r24
     ea0:	52 f0       	brmi	.+20     	; 0xeb6 <__fp_round+0x20>
     ea2:	bb 0f       	add	r27, r27
     ea4:	40 f4       	brcc	.+16     	; 0xeb6 <__fp_round+0x20>
     ea6:	bf 2b       	or	r27, r31
     ea8:	11 f4       	brne	.+4      	; 0xeae <__fp_round+0x18>
     eaa:	60 ff       	sbrs	r22, 0
     eac:	04 c0       	rjmp	.+8      	; 0xeb6 <__fp_round+0x20>
     eae:	6f 5f       	subi	r22, 0xFF	; 255
     eb0:	7f 4f       	sbci	r23, 0xFF	; 255
     eb2:	8f 4f       	sbci	r24, 0xFF	; 255
     eb4:	9f 4f       	sbci	r25, 0xFF	; 255
     eb6:	08 95       	ret

00000eb8 <__fp_split3>:
     eb8:	57 fd       	sbrc	r21, 7
     eba:	90 58       	subi	r25, 0x80	; 128
     ebc:	44 0f       	add	r20, r20
     ebe:	55 1f       	adc	r21, r21
     ec0:	59 f0       	breq	.+22     	; 0xed8 <__fp_splitA+0x10>
     ec2:	5f 3f       	cpi	r21, 0xFF	; 255
     ec4:	71 f0       	breq	.+28     	; 0xee2 <__fp_splitA+0x1a>
     ec6:	47 95       	ror	r20

00000ec8 <__fp_splitA>:
     ec8:	88 0f       	add	r24, r24
     eca:	97 fb       	bst	r25, 7
     ecc:	99 1f       	adc	r25, r25
     ece:	61 f0       	breq	.+24     	; 0xee8 <__fp_splitA+0x20>
     ed0:	9f 3f       	cpi	r25, 0xFF	; 255
     ed2:	79 f0       	breq	.+30     	; 0xef2 <__fp_splitA+0x2a>
     ed4:	87 95       	ror	r24
     ed6:	08 95       	ret
     ed8:	12 16       	cp	r1, r18
     eda:	13 06       	cpc	r1, r19
     edc:	14 06       	cpc	r1, r20
     ede:	55 1f       	adc	r21, r21
     ee0:	f2 cf       	rjmp	.-28     	; 0xec6 <__fp_split3+0xe>
     ee2:	46 95       	lsr	r20
     ee4:	f1 df       	rcall	.-30     	; 0xec8 <__fp_splitA>
     ee6:	08 c0       	rjmp	.+16     	; 0xef8 <__fp_splitA+0x30>
     ee8:	16 16       	cp	r1, r22
     eea:	17 06       	cpc	r1, r23
     eec:	18 06       	cpc	r1, r24
     eee:	99 1f       	adc	r25, r25
     ef0:	f1 cf       	rjmp	.-30     	; 0xed4 <__fp_splitA+0xc>
     ef2:	86 95       	lsr	r24
     ef4:	71 05       	cpc	r23, r1
     ef6:	61 05       	cpc	r22, r1
     ef8:	08 94       	sec
     efa:	08 95       	ret

00000efc <__fp_zero>:
     efc:	e8 94       	clt

00000efe <__fp_szero>:
     efe:	bb 27       	eor	r27, r27
     f00:	66 27       	eor	r22, r22
     f02:	77 27       	eor	r23, r23
     f04:	cb 01       	movw	r24, r22
     f06:	97 f9       	bld	r25, 7
     f08:	08 95       	ret

00000f0a <__mulsf3>:
     f0a:	0b d0       	rcall	.+22     	; 0xf22 <__mulsf3x>
     f0c:	c4 cf       	rjmp	.-120    	; 0xe96 <__fp_round>
     f0e:	b5 df       	rcall	.-150    	; 0xe7a <__fp_pscA>
     f10:	28 f0       	brcs	.+10     	; 0xf1c <__mulsf3+0x12>
     f12:	ba df       	rcall	.-140    	; 0xe88 <__fp_pscB>
     f14:	18 f0       	brcs	.+6      	; 0xf1c <__mulsf3+0x12>
     f16:	95 23       	and	r25, r21
     f18:	09 f0       	breq	.+2      	; 0xf1c <__mulsf3+0x12>
     f1a:	a6 cf       	rjmp	.-180    	; 0xe68 <__fp_inf>
     f1c:	ab cf       	rjmp	.-170    	; 0xe74 <__fp_nan>
     f1e:	11 24       	eor	r1, r1
     f20:	ee cf       	rjmp	.-36     	; 0xefe <__fp_szero>

00000f22 <__mulsf3x>:
     f22:	ca df       	rcall	.-108    	; 0xeb8 <__fp_split3>
     f24:	a0 f3       	brcs	.-24     	; 0xf0e <__mulsf3+0x4>

00000f26 <__mulsf3_pse>:
     f26:	95 9f       	mul	r25, r21
     f28:	d1 f3       	breq	.-12     	; 0xf1e <__mulsf3+0x14>
     f2a:	95 0f       	add	r25, r21
     f2c:	50 e0       	ldi	r21, 0x00	; 0
     f2e:	55 1f       	adc	r21, r21
     f30:	62 9f       	mul	r22, r18
     f32:	f0 01       	movw	r30, r0
     f34:	72 9f       	mul	r23, r18
     f36:	bb 27       	eor	r27, r27
     f38:	f0 0d       	add	r31, r0
     f3a:	b1 1d       	adc	r27, r1
     f3c:	63 9f       	mul	r22, r19
     f3e:	aa 27       	eor	r26, r26
     f40:	f0 0d       	add	r31, r0
     f42:	b1 1d       	adc	r27, r1
     f44:	aa 1f       	adc	r26, r26
     f46:	64 9f       	mul	r22, r20
     f48:	66 27       	eor	r22, r22
     f4a:	b0 0d       	add	r27, r0
     f4c:	a1 1d       	adc	r26, r1
     f4e:	66 1f       	adc	r22, r22
     f50:	82 9f       	mul	r24, r18
     f52:	22 27       	eor	r18, r18
     f54:	b0 0d       	add	r27, r0
     f56:	a1 1d       	adc	r26, r1
     f58:	62 1f       	adc	r22, r18
     f5a:	73 9f       	mul	r23, r19
     f5c:	b0 0d       	add	r27, r0
     f5e:	a1 1d       	adc	r26, r1
     f60:	62 1f       	adc	r22, r18
     f62:	83 9f       	mul	r24, r19
     f64:	a0 0d       	add	r26, r0
     f66:	61 1d       	adc	r22, r1
     f68:	22 1f       	adc	r18, r18
     f6a:	74 9f       	mul	r23, r20
     f6c:	33 27       	eor	r19, r19
     f6e:	a0 0d       	add	r26, r0
     f70:	61 1d       	adc	r22, r1
     f72:	23 1f       	adc	r18, r19
     f74:	84 9f       	mul	r24, r20
     f76:	60 0d       	add	r22, r0
     f78:	21 1d       	adc	r18, r1
     f7a:	82 2f       	mov	r24, r18
     f7c:	76 2f       	mov	r23, r22
     f7e:	6a 2f       	mov	r22, r26
     f80:	11 24       	eor	r1, r1
     f82:	9f 57       	subi	r25, 0x7F	; 127
     f84:	50 40       	sbci	r21, 0x00	; 0
     f86:	8a f0       	brmi	.+34     	; 0xfaa <__mulsf3_pse+0x84>
     f88:	e1 f0       	breq	.+56     	; 0xfc2 <__mulsf3_pse+0x9c>
     f8a:	88 23       	and	r24, r24
     f8c:	4a f0       	brmi	.+18     	; 0xfa0 <__mulsf3_pse+0x7a>
     f8e:	ee 0f       	add	r30, r30
     f90:	ff 1f       	adc	r31, r31
     f92:	bb 1f       	adc	r27, r27
     f94:	66 1f       	adc	r22, r22
     f96:	77 1f       	adc	r23, r23
     f98:	88 1f       	adc	r24, r24
     f9a:	91 50       	subi	r25, 0x01	; 1
     f9c:	50 40       	sbci	r21, 0x00	; 0
     f9e:	a9 f7       	brne	.-22     	; 0xf8a <__mulsf3_pse+0x64>
     fa0:	9e 3f       	cpi	r25, 0xFE	; 254
     fa2:	51 05       	cpc	r21, r1
     fa4:	70 f0       	brcs	.+28     	; 0xfc2 <__mulsf3_pse+0x9c>
     fa6:	60 cf       	rjmp	.-320    	; 0xe68 <__fp_inf>
     fa8:	aa cf       	rjmp	.-172    	; 0xefe <__fp_szero>
     faa:	5f 3f       	cpi	r21, 0xFF	; 255
     fac:	ec f3       	brlt	.-6      	; 0xfa8 <__mulsf3_pse+0x82>
     fae:	98 3e       	cpi	r25, 0xE8	; 232
     fb0:	dc f3       	brlt	.-10     	; 0xfa8 <__mulsf3_pse+0x82>
     fb2:	86 95       	lsr	r24
     fb4:	77 95       	ror	r23
     fb6:	67 95       	ror	r22
     fb8:	b7 95       	ror	r27
     fba:	f7 95       	ror	r31
     fbc:	e7 95       	ror	r30
     fbe:	9f 5f       	subi	r25, 0xFF	; 255
     fc0:	c1 f7       	brne	.-16     	; 0xfb2 <__mulsf3_pse+0x8c>
     fc2:	fe 2b       	or	r31, r30
     fc4:	88 0f       	add	r24, r24
     fc6:	91 1d       	adc	r25, r1
     fc8:	96 95       	lsr	r25
     fca:	87 95       	ror	r24
     fcc:	97 f9       	bld	r25, 7
     fce:	08 95       	ret

00000fd0 <__udivmodsi4>:
     fd0:	a1 e2       	ldi	r26, 0x21	; 33
     fd2:	1a 2e       	mov	r1, r26
     fd4:	aa 1b       	sub	r26, r26
     fd6:	bb 1b       	sub	r27, r27
     fd8:	fd 01       	movw	r30, r26
     fda:	0d c0       	rjmp	.+26     	; 0xff6 <__udivmodsi4_ep>

00000fdc <__udivmodsi4_loop>:
     fdc:	aa 1f       	adc	r26, r26
     fde:	bb 1f       	adc	r27, r27
     fe0:	ee 1f       	adc	r30, r30
     fe2:	ff 1f       	adc	r31, r31
     fe4:	a2 17       	cp	r26, r18
     fe6:	b3 07       	cpc	r27, r19
     fe8:	e4 07       	cpc	r30, r20
     fea:	f5 07       	cpc	r31, r21
     fec:	20 f0       	brcs	.+8      	; 0xff6 <__udivmodsi4_ep>
     fee:	a2 1b       	sub	r26, r18
     ff0:	b3 0b       	sbc	r27, r19
     ff2:	e4 0b       	sbc	r30, r20
     ff4:	f5 0b       	sbc	r31, r21

00000ff6 <__udivmodsi4_ep>:
     ff6:	66 1f       	adc	r22, r22
     ff8:	77 1f       	adc	r23, r23
     ffa:	88 1f       	adc	r24, r24
     ffc:	99 1f       	adc	r25, r25
     ffe:	1a 94       	dec	r1
    1000:	69 f7       	brne	.-38     	; 0xfdc <__udivmodsi4_loop>
    1002:	60 95       	com	r22
    1004:	70 95       	com	r23
    1006:	80 95       	com	r24
    1008:	90 95       	com	r25
    100a:	9b 01       	movw	r18, r22
    100c:	ac 01       	movw	r20, r24
    100e:	bd 01       	movw	r22, r26
    1010:	cf 01       	movw	r24, r30
    1012:	08 95       	ret

00001014 <__divmodsi4>:
    1014:	05 2e       	mov	r0, r21
    1016:	97 fb       	bst	r25, 7
    1018:	16 f4       	brtc	.+4      	; 0x101e <__divmodsi4+0xa>
    101a:	00 94       	com	r0
    101c:	0f d0       	rcall	.+30     	; 0x103c <__negsi2>
    101e:	57 fd       	sbrc	r21, 7
    1020:	05 d0       	rcall	.+10     	; 0x102c <__divmodsi4_neg2>
    1022:	d6 df       	rcall	.-84     	; 0xfd0 <__udivmodsi4>
    1024:	07 fc       	sbrc	r0, 7
    1026:	02 d0       	rcall	.+4      	; 0x102c <__divmodsi4_neg2>
    1028:	46 f4       	brtc	.+16     	; 0x103a <__divmodsi4_exit>
    102a:	08 c0       	rjmp	.+16     	; 0x103c <__negsi2>

0000102c <__divmodsi4_neg2>:
    102c:	50 95       	com	r21
    102e:	40 95       	com	r20
    1030:	30 95       	com	r19
    1032:	21 95       	neg	r18
    1034:	3f 4f       	sbci	r19, 0xFF	; 255
    1036:	4f 4f       	sbci	r20, 0xFF	; 255
    1038:	5f 4f       	sbci	r21, 0xFF	; 255

0000103a <__divmodsi4_exit>:
    103a:	08 95       	ret

0000103c <__negsi2>:
    103c:	90 95       	com	r25
    103e:	80 95       	com	r24
    1040:	70 95       	com	r23
    1042:	61 95       	neg	r22
    1044:	7f 4f       	sbci	r23, 0xFF	; 255
    1046:	8f 4f       	sbci	r24, 0xFF	; 255
    1048:	9f 4f       	sbci	r25, 0xFF	; 255
    104a:	08 95       	ret

0000104c <__umulhisi3>:
    104c:	a2 9f       	mul	r26, r18
    104e:	b0 01       	movw	r22, r0
    1050:	b3 9f       	mul	r27, r19
    1052:	c0 01       	movw	r24, r0
    1054:	a3 9f       	mul	r26, r19
    1056:	70 0d       	add	r23, r0
    1058:	81 1d       	adc	r24, r1
    105a:	11 24       	eor	r1, r1
    105c:	91 1d       	adc	r25, r1
    105e:	b2 9f       	mul	r27, r18
    1060:	70 0d       	add	r23, r0
    1062:	81 1d       	adc	r24, r1
    1064:	11 24       	eor	r1, r1
    1066:	91 1d       	adc	r25, r1
    1068:	08 95       	ret

0000106a <_exit>:
    106a:	f8 94       	cli

0000106c <__stop_program>:
    106c:	ff cf       	rjmp	.-2      	; 0x106c <__stop_program>
